Certificate:
    Data:
        Version: 3 (0x2)
        Serial Number: 1 (0x1)
        Signature Algorithm: sha512WithRSAEncryption
        Issuer: C=DE, O=Damaschkestr. 11, OU=Arbeitszimmer, CN=Dama11 Lab Ext Party A Intermediary 1 CA
        Validity
            Not Before: Dec  9 12:29:36 2022 GMT
            Not After : Dec  9 23:59:59 2025 GMT
        Subject: C=DE, O=Damaschkestr. 11, OU=Arbeitszimmer, CN=Dama11 Lab Ext Party A1 Identity CA
        Subject Public Key Info:
            Public Key Algorithm: rsaEncryption
                RSA Public-Key: (4096 bit)
                Modulus:
                    00:d6:79:79:ed:6e:bf:8a:56:46:8b:c8:fb:f8:e0:
                    89:18:33:5d:7e:b5:3c:d9:69:26:90:48:5c:7a:30:
                    1d:82:7a:1a:7d:94:47:e7:ba:0e:55:62:e2:ce:7d:
                    e0:50:86:83:d4:24:25:92:59:27:7b:b1:f8:12:a1:
                    51:72:d1:dd:3a:38:d9:70:28:3e:83:83:77:a0:10:
                    df:c7:5d:45:0c:7c:83:f7:10:d6:81:a5:86:6d:25:
                    05:37:3e:5e:de:1c:01:cf:ef:91:5a:34:2e:4d:b0:
                    cb:6d:c6:b8:a1:69:92:af:83:7e:4d:d6:e4:65:1c:
                    f3:b3:92:6a:04:67:29:d3:f2:b7:83:49:51:37:91:
                    f2:68:b7:df:2f:25:e2:7d:70:14:eb:84:6e:fc:72:
                    f0:e2:35:f7:07:db:85:44:27:95:cd:50:10:a9:1d:
                    96:64:22:79:d8:41:72:01:03:cf:1d:b2:2c:b1:e5:
                    e7:94:98:11:43:db:e8:fd:0b:72:ed:23:f4:82:6c:
                    42:20:e6:af:8c:a4:66:34:2b:62:98:e3:4c:af:13:
                    bc:08:69:69:84:d0:de:f8:1d:87:cc:b7:52:dc:ad:
                    c6:c9:66:d0:64:0e:80:c8:df:ac:e1:b9:83:a5:66:
                    2c:5f:a8:17:2c:d1:89:89:f8:ac:f0:d4:1a:8a:67:
                    82:29:24:50:fd:de:27:5f:40:b1:57:84:02:cc:8d:
                    ce:0f:fa:08:4a:79:e6:dc:0f:23:f8:08:4b:1a:f3:
                    fc:07:7d:8f:bd:22:77:e3:28:5a:1b:40:5d:7f:69:
                    e5:fb:8b:b2:b1:27:b0:26:86:6c:89:09:a8:40:ae:
                    a4:53:43:aa:cf:c1:4e:83:50:59:a8:3e:05:2a:c8:
                    cc:6a:d0:ae:6d:f5:e2:0a:93:7a:74:5e:74:88:ee:
                    4e:25:39:fd:95:2f:7c:19:90:91:0a:34:2d:a4:21:
                    e8:6c:77:76:b4:e8:ac:cf:05:28:6b:d0:db:70:07:
                    a1:59:ae:25:01:94:a3:fb:2f:99:6d:0c:af:4a:31:
                    fd:ca:6f:93:51:b7:64:72:c9:6a:1b:ed:19:71:bb:
                    6d:62:d8:a7:b7:dc:60:9d:07:ab:ca:cf:f0:76:20:
                    8d:55:80:b4:e6:74:6e:16:a1:c8:cf:d8:74:d7:c7:
                    da:a8:93:a0:b6:da:ab:40:5b:02:f9:0d:aa:eb:89:
                    92:fa:11:51:aa:3f:89:5d:a1:c1:98:5e:97:39:e2:
                    c2:dc:ac:88:68:a9:b0:c3:51:54:28:64:b2:48:43:
                    c1:99:58:0c:29:9b:f5:d3:ce:87:d4:68:f8:fc:5f:
                    f4:56:1e:28:ca:5c:8f:97:63:62:84:99:86:e5:6e:
                    62:c3:4f
                Exponent: 65537 (0x10001)
        X509v3 extensions:
            X509v3 Key Usage: critical
                Certificate Sign, CRL Sign
            X509v3 Basic Constraints: critical
                CA:TRUE, pathlen:0
            X509v3 Subject Key Identifier: 
                B0:E8:63:B6:D6:19:5B:79:0A:3D:96:71:30:B4:3E:B0:8B:64:8F:B3
            X509v3 Authority Key Identifier: 
                keyid:77:24:DE:90:AE:42:4D:F5:66:96:87:28:71:B7:8A:CC:D6:C9:D9:B0

            Authority Information Access: 
                CA Issuers - URI:https://elbosso.github.io/x509//Dama11_External_Party_A_Intermediary_1_CA-ca.crt

            X509v3 CRL Distribution Points: 

                Full Name:
                  URI:https://elbosso.github.io/x509//Dama11_External_Party_A_Intermediary_1_CA-ca.crl

            X509v3 Certificate Policies: 
                Policy: Certificate issued in compliance with the TLS Baseline Requirements – Organization identity asserted

    Signature Algorithm: sha512WithRSAEncryption
         67:85:8e:00:c5:48:37:20:96:43:f1:7d:91:f8:6c:75:76:6d:
         4b:b8:4d:e4:7d:6d:09:28:7d:52:b1:a9:ef:1c:28:33:33:36:
         0d:0a:5b:4b:0e:9b:2f:10:4b:c0:ee:38:ff:00:57:65:67:7c:
         d9:f3:34:d6:79:4c:79:52:96:ae:7b:ca:bd:6a:b2:11:b1:c6:
         cc:36:b5:da:d7:09:ca:63:a8:0c:1d:78:b5:3b:c7:ca:eb:e2:
         03:7f:8f:e2:cc:d9:0c:97:2c:16:13:71:46:9a:35:25:90:2d:
         eb:49:23:57:23:86:1f:4c:60:77:99:de:e9:5c:47:22:2e:e1:
         a8:48:ef:e9:31:dc:8b:53:6b:08:d4:0d:49:f7:2e:18:79:73:
         65:6c:51:41:32:4f:77:e0:0e:37:74:ae:38:41:f4:13:ce:eb:
         c0:84:46:78:65:1f:83:c4:71:37:80:f4:cc:fd:f7:a9:5b:60:
         73:6b:d0:d7:7c:1f:ca:c4:ac:69:bd:14:46:f4:e7:0b:9f:8c:
         ff:10:5e:e5:82:23:ad:ef:7c:56:3f:4c:43:ee:ea:0b:07:f9:
         94:ef:a3:65:ab:fa:ae:1a:89:97:1e:8c:a9:b6:3f:e4:9b:0b:
         5d:cc:34:d1:42:f1:e0:2b:a3:1d:43:f8:31:59:fc:b8:09:c8:
         61:40:1a:bd:ef:6d:86:06:ec:82:1a:91:a8:62:be:8e:4f:16:
         7b:7b:12:e4:63:d1:dd:5d:17:a5:5a:cc:81:25:f5:d7:58:65:
         fb:37:4e:93:9f:8d:35:5c:71:f5:68:85:01:82:6a:53:a1:e0:
         6b:70:78:87:c6:66:ab:05:86:7a:aa:27:d5:b2:cf:04:44:7e:
         74:70:07:45:1a:ae:19:5e:75:85:7b:44:81:a4:e9:a8:27:0a:
         54:82:47:b7:04:d2:9e:78:6b:a0:d1:f2:eb:15:c0:96:21:b9:
         86:55:50:b8:f1:31:fe:1a:da:90:03:9b:ca:e9:69:12:55:29:
         ba:e7:cd:65:a1:ff:bf:48:ef:6e:d1:90:ad:ea:4d:c9:3e:64:
         ab:73:ee:c0:3e:78:59:8e:f0:71:99:1a:a2:ed:d9:71:5c:ca:
         0e:f7:cc:3f:c1:7f:04:6b:47:7a:10:af:c8:4b:fb:f5:82:71:
         65:18:f8:ac:84:30:7e:99:94:1f:50:ef:a2:ca:1a:4c:65:23:
         0d:d0:e4:d8:9f:f7:42:e5:b5:69:b3:72:5f:3f:95:0d:95:c1:
         32:33:90:7e:10:5e:81:b3:24:e9:d8:7a:e1:01:46:67:67:3d:
         82:86:fb:78:dc:b9:a7:5f:da:82:43:8e:ed:27:bc:5e:15:27:
         22:0b:60:46:5d:a1:47:a1
-----BEGIN CERTIFICATE-----
MIIGrDCCBJSgAwIBAgIBATANBgkqhkiG9w0BAQ0FADBzMQswCQYDVQQGEwJERTEZ
MBcGA1UECgwQRGFtYXNjaGtlc3RyLiAxMTEWMBQGA1UECwwNQXJiZWl0c3ppbW1l
cjExMC8GA1UEAwwoRGFtYTExIExhYiBFeHQgUGFydHkgQSBJbnRlcm1lZGlhcnkg
MSBDQTAeFw0yMjEyMDkxMjI5MzZaFw0yNTEyMDkyMzU5NTlaMG4xCzAJBgNVBAYT
AkRFMRkwFwYDVQQKDBBEYW1hc2Noa2VzdHIuIDExMRYwFAYDVQQLDA1BcmJlaXRz
emltbWVyMSwwKgYDVQQDDCNEYW1hMTEgTGFiIEV4dCBQYXJ0eSBBMSBJZGVudGl0
eSBDQTCCAiIwDQYJKoZIhvcNAQEBBQADggIPADCCAgoCggIBANZ5ee1uv4pWRovI
+/jgiRgzXX61PNlpJpBIXHowHYJ6Gn2UR+e6DlVi4s594FCGg9QkJZJZJ3ux+BKh
UXLR3To42XAoPoODd6AQ38ddRQx8g/cQ1oGlhm0lBTc+Xt4cAc/vkVo0Lk2wy23G
uKFpkq+Dfk3W5GUc87OSagRnKdPyt4NJUTeR8mi33y8l4n1wFOuEbvxy8OI19wfb
hUQnlc1QEKkdlmQiedhBcgEDzx2yLLHl55SYEUPb6P0Lcu0j9IJsQiDmr4ykZjQr
YpjjTK8TvAhpaYTQ3vgdh8y3Utytxslm0GQOgMjfrOG5g6VmLF+oFyzRiYn4rPDU
GopngikkUP3eJ19AsVeEAsyNzg/6CEp55twPI/gISxrz/Ad9j70id+MoWhtAXX9p
5fuLsrEnsCaGbIkJqECupFNDqs/BToNQWag+BSrIzGrQrm314gqTenRedIjuTiU5
/ZUvfBmQkQo0LaQh6Gx3drTorM8FKGvQ23AHoVmuJQGUo/svmW0Mr0ox/cpvk1G3
ZHLJahvtGXG7bWLYp7fcYJ0Hq8rP8HYgjVWAtOZ0bhahyM/YdNfH2qiToLbaq0Bb
AvkNquuJkvoRUao/iV2hwZhelzniwtysiGipsMNRVChkskhDwZlYDCmb9dPOh9Ro
+Pxf9FYeKMpcj5djYoSZhuVuYsNPAgMBAAGjggFOMIIBSjAOBgNVHQ8BAf8EBAMC
AQYwEgYDVR0TAQH/BAgwBgEB/wIBADAdBgNVHQ4EFgQUsOhjttYZW3kKPZZxMLQ+
sItkj7MwHwYDVR0jBBgwFoAUdyTekK5CTfVmlococbeKzNbJ2bAwbAYIKwYBBQUH
AQEEYDBeMFwGCCsGAQUFBzAChlBodHRwczovL2VsYm9zc28uZ2l0aHViLmlvL3g1
MDkvL0RhbWExMV9FeHRlcm5hbF9QYXJ0eV9BX0ludGVybWVkaWFyeV8xX0NBLWNh
LmNydDBhBgNVHR8EWjBYMFagVKBShlBodHRwczovL2VsYm9zc28uZ2l0aHViLmlv
L3g1MDkvL0RhbWExMV9FeHRlcm5hbF9QYXJ0eV9BX0ludGVybWVkaWFyeV8xX0NB
LWNhLmNybDATBgNVHSAEDDAKMAgGBmeBDAECAjANBgkqhkiG9w0BAQ0FAAOCAgEA
Z4WOAMVINyCWQ/F9kfhsdXZtS7hN5H1tCSh9UrGp7xwoMzM2DQpbSw6bLxBLwO44
/wBXZWd82fM01nlMeVKWrnvKvWqyEbHGzDa12tcJymOoDB14tTvHyuviA3+P4szZ
DJcsFhNxRpo1JZAt60kjVyOGH0xgd5ne6VxHIi7hqEjv6THci1NrCNQNSfcuGHlz
ZWxRQTJPd+AON3SuOEH0E87rwIRGeGUfg8RxN4D0zP33qVtgc2vQ13wfysSsab0U
RvTnC5+M/xBe5YIjre98Vj9MQ+7qCwf5lO+jZav6rhqJlx6MqbY/5JsLXcw00ULx
4CujHUP4MVn8uAnIYUAave9thgbsghqRqGK+jk8We3sS5GPR3V0XpVrMgSX111hl
+zdOk5+NNVxx9WiFAYJqU6Hga3B4h8ZmqwWGeqon1bLPBER+dHAHRRquGV51hXtE
gaTpqCcKVIJHtwTSnnhroNHy6xXAliG5hlVQuPEx/hrakAObyulpElUpuufNZaH/
v0jvbtGQrepNyT5kq3PuwD54WY7wcZkaou3ZcVzKDvfMP8F/BGtHehCvyEv79YJx
ZRj4rIQwfpmUH1DvosoaTGUjDdDk2J/3QuW1abNyXz+VDZXBMjOQfhBegbMk6dh6
4QFGZ2c9gob7eNy5p1/agkOO7Se8XhUnIgtgRl2hR6E=
-----END CERTIFICATE-----
