Certificate:
    Data:
        Version: 3 (0x2)
        Serial Number: 1 (0x1)
        Signature Algorithm: sha512WithRSAEncryption
        Issuer: C=DE, O=Damaschkestr. 11, OU=Arbeitszimmer, CN=Dama11 Lab Independent Test Root CA
        Validity
            Not Before: Dec  9 11:26:36 2022 GMT
            Not After : Dec  9 23:59:59 2025 GMT
        Subject: C=DE, O=Damaschkestr. 11, OU=Arbeitszimmer, CN=Dama11 Lab Independent Test Root CA
        Subject Public Key Info:
            Public Key Algorithm: rsaEncryption
                RSA Public-Key: (4096 bit)
                Modulus:
                    00:e1:ba:48:35:d0:b5:5e:c8:37:12:7c:1e:8f:c7:
                    ec:98:9d:6d:36:91:3a:4a:8c:bf:93:70:e8:b8:73:
                    3b:57:b7:76:38:4a:f1:c8:77:17:09:69:96:74:21:
                    9b:e8:d3:10:a2:a5:01:fa:c4:ee:1c:31:b5:5e:98:
                    35:c9:c4:93:7f:e2:f9:b3:4c:fc:43:24:29:31:b0:
                    34:bd:7e:f7:7e:cc:de:02:e8:4d:cc:7c:b4:7e:ed:
                    f1:af:69:75:ae:65:1f:66:df:62:e6:0b:5f:d1:0c:
                    97:e6:45:f2:d0:db:35:e6:94:77:63:11:d7:79:5c:
                    97:ec:36:b6:7f:e5:ad:63:c3:ea:cf:bb:c0:1f:83:
                    1a:ba:1e:a0:ab:34:a8:f3:51:f7:d0:a9:f7:81:aa:
                    a0:a2:4c:d3:69:9a:45:58:9c:76:65:af:ff:d9:68:
                    bb:b4:a4:10:0b:29:d9:1e:bd:9d:95:0e:b3:41:10:
                    30:34:9c:9d:34:5a:b2:3a:bb:73:f1:52:2b:7b:db:
                    81:d6:43:19:4e:0e:bb:db:b2:b0:cb:7e:b4:ce:cd:
                    78:3a:84:3a:b7:b2:8e:e2:88:41:16:06:14:ac:45:
                    91:3f:52:96:5e:06:85:70:4a:28:05:db:09:8a:1d:
                    cc:98:57:65:5c:9a:e9:24:b9:20:f0:aa:0f:23:b4:
                    04:dc:f6:74:18:dd:69:dd:b6:e9:97:86:e6:05:f5:
                    2a:4b:8c:0d:3c:db:24:6f:b6:cb:31:4c:17:af:cb:
                    bf:ee:fb:47:d5:4d:70:e3:e8:02:a6:9b:b9:7d:11:
                    60:9c:4d:4f:13:60:68:c9:2d:55:43:7e:a8:a0:de:
                    9f:5f:f7:c1:3a:f3:56:2b:41:86:37:51:a2:cf:8a:
                    d1:a4:bd:69:cc:02:28:cf:c9:58:46:f0:13:7d:a6:
                    d9:bf:f5:bb:cc:44:6b:62:55:84:59:00:9c:c9:c1:
                    8e:5b:af:9f:97:2c:08:91:b4:02:29:b8:17:bd:24:
                    9d:91:a5:6e:33:d5:8d:1d:c3:ad:b8:fb:1a:25:15:
                    4a:15:0a:30:cb:86:ad:8f:93:23:f8:8e:da:26:44:
                    f4:aa:73:72:6d:5a:ba:b5:83:1e:cd:bd:29:9a:76:
                    3a:92:6d:82:60:b6:09:9f:60:44:53:f7:cc:16:8f:
                    be:85:7e:16:a2:e5:fb:46:ac:66:74:08:11:25:04:
                    3d:cf:44:af:d6:77:c6:8c:73:65:2d:56:28:77:ca:
                    37:b3:f9:66:fa:c5:88:48:b7:77:29:c0:70:01:df:
                    d3:b6:1e:64:a9:27:fd:a2:46:f2:79:8c:3a:fc:17:
                    7b:e5:89:72:df:ea:6b:eb:8c:0c:a2:6b:36:d7:b5:
                    20:91:55
                Exponent: 65537 (0x10001)
        X509v3 extensions:
            X509v3 Key Usage: critical
                Certificate Sign, CRL Sign
            X509v3 Basic Constraints: critical
                CA:TRUE
            X509v3 Subject Key Identifier: 
                B8:E3:ED:38:E2:3D:91:90:34:11:7E:3B:1D:10:E2:66:F7:BC:F7:4D
            X509v3 Authority Key Identifier: 
                keyid:B8:E3:ED:38:E2:3D:91:90:34:11:7E:3B:1D:10:E2:66:F7:BC:F7:4D

    Signature Algorithm: sha512WithRSAEncryption
         b3:d2:fe:d0:3a:42:cc:a2:85:9b:b8:a2:6a:28:0b:c2:d9:11:
         5b:f5:29:3d:c6:7b:bf:29:93:6f:24:d2:30:2b:b1:a0:54:d6:
         09:6b:2b:07:08:77:b7:4e:f5:fe:12:02:ca:e8:61:33:b7:37:
         f6:aa:fe:e7:1c:71:b7:cf:df:ed:8f:58:d0:35:cd:7c:c0:2a:
         82:d9:03:8b:36:be:03:79:b6:12:8b:e2:c3:7b:4b:0a:0c:62:
         e5:6d:85:16:19:33:d4:02:30:81:9c:64:71:65:51:ce:2a:b2:
         71:d6:c8:df:f7:6c:47:0f:42:f2:9a:4b:7b:04:31:e6:b9:2b:
         ad:c7:7a:f1:02:9f:0a:15:f1:5e:88:4c:c5:1e:8c:a1:a3:3e:
         53:d7:46:5e:6c:64:57:76:3f:a9:e7:e3:d0:49:67:78:dc:9c:
         9d:b6:1a:91:cd:56:78:5a:55:84:2f:50:fa:34:47:8e:8e:a4:
         4a:5d:2e:4e:b6:62:22:ff:57:57:df:e7:37:13:9f:fa:81:20:
         7b:55:a6:7b:73:30:75:81:7c:0b:2b:08:19:66:96:99:dc:19:
         65:31:31:25:87:ec:fb:c0:ab:20:69:56:ad:e2:24:d4:9e:c8:
         18:f0:28:8f:64:aa:5d:a1:69:f6:f2:fb:a8:87:4b:fd:24:1e:
         69:98:42:38:e3:31:d9:b2:9a:8f:7e:fe:64:8a:05:e4:ab:df:
         dd:97:d3:fd:e2:51:91:3d:5c:92:64:e1:3e:c7:c6:91:b8:0a:
         15:84:b3:86:68:ef:be:90:45:80:b2:68:a2:d3:64:cb:8d:08:
         82:0b:af:f7:f4:0f:f1:ce:34:96:8f:51:6e:7e:f7:f5:e1:e3:
         e5:00:56:dd:d0:41:0e:01:82:0f:81:60:be:11:1a:5c:69:01:
         59:22:ed:a8:84:f6:ea:bf:05:36:2d:61:08:6f:d4:bf:7c:dd:
         94:14:ba:4d:28:86:63:b5:ea:66:a0:d4:88:90:78:7e:5c:bb:
         c2:fc:42:a2:d6:4c:10:d3:71:9d:34:59:22:7f:f4:94:53:a7:
         df:4a:ba:5a:10:df:d8:43:2c:60:8e:33:17:c6:72:98:41:1c:
         5c:98:48:cd:ab:de:5d:6f:fe:7d:44:5f:21:c9:b1:00:83:9c:
         b3:f9:b2:7b:04:d1:94:b7:87:5c:ac:b1:3d:45:67:1a:05:50:
         2c:58:34:80:3c:23:77:c7:f6:f3:ba:5f:36:e4:62:73:14:3d:
         c9:8e:31:b5:95:69:81:97:f1:18:66:35:06:a5:79:a9:3e:c6:
         49:61:ba:b7:17:3e:ec:2e:ec:be:27:ea:31:a8:69:c5:11:fe:
         b5:f5:d3:50:d9:72:95:a4
-----BEGIN CERTIFICATE-----
MIIFujCCA6KgAwIBAgIBATANBgkqhkiG9w0BAQ0FADBuMQswCQYDVQQGEwJERTEZ
MBcGA1UECgwQRGFtYXNjaGtlc3RyLiAxMTEWMBQGA1UECwwNQXJiZWl0c3ppbW1l
cjEsMCoGA1UEAwwjRGFtYTExIExhYiBJbmRlcGVuZGVudCBUZXN0IFJvb3QgQ0Ew
HhcNMjIxMjA5MTEyNjM2WhcNMjUxMjA5MjM1OTU5WjBuMQswCQYDVQQGEwJERTEZ
MBcGA1UECgwQRGFtYXNjaGtlc3RyLiAxMTEWMBQGA1UECwwNQXJiZWl0c3ppbW1l
cjEsMCoGA1UEAwwjRGFtYTExIExhYiBJbmRlcGVuZGVudCBUZXN0IFJvb3QgQ0Ew
ggIiMA0GCSqGSIb3DQEBAQUAA4ICDwAwggIKAoICAQDhukg10LVeyDcSfB6Px+yY
nW02kTpKjL+TcOi4cztXt3Y4SvHIdxcJaZZ0IZvo0xCipQH6xO4cMbVemDXJxJN/
4vmzTPxDJCkxsDS9fvd+zN4C6E3MfLR+7fGvaXWuZR9m32LmC1/RDJfmRfLQ2zXm
lHdjEdd5XJfsNrZ/5a1jw+rPu8Afgxq6HqCrNKjzUffQqfeBqqCiTNNpmkVYnHZl
r//ZaLu0pBALKdkevZ2VDrNBEDA0nJ00WrI6u3PxUit724HWQxlODrvbsrDLfrTO
zXg6hDq3so7iiEEWBhSsRZE/UpZeBoVwSigF2wmKHcyYV2VcmukkuSDwqg8jtATc
9nQY3WndtumXhuYF9SpLjA082yRvtssxTBevy7/u+0fVTXDj6AKmm7l9EWCcTU8T
YGjJLVVDfqig3p9f98E681YrQYY3UaLPitGkvWnMAijPyVhG8BN9ptm/9bvMRGti
VYRZAJzJwY5br5+XLAiRtAIpuBe9JJ2RpW4z1Y0dw624+xolFUoVCjDLhq2PkyP4
jtomRPSqc3JtWrq1gx7NvSmadjqSbYJgtgmfYERT98wWj76Ffhai5ftGrGZ0CBEl
BD3PRK/Wd8aMc2UtVih3yjez+Wb6xYhIt3cpwHAB39O2HmSpJ/2iRvJ5jDr8F3vl
iXLf6mvrjAyiazbXtSCRVQIDAQABo2MwYTAOBgNVHQ8BAf8EBAMCAQYwDwYDVR0T
AQH/BAUwAwEB/zAdBgNVHQ4EFgQUuOPtOOI9kZA0EX47HRDiZve8900wHwYDVR0j
BBgwFoAUuOPtOOI9kZA0EX47HRDiZve8900wDQYJKoZIhvcNAQENBQADggIBALPS
/tA6QsyihZu4omooC8LZEVv1KT3Ge78pk28k0jArsaBU1glrKwcId7dO9f4SAsro
YTO3N/aq/ucccbfP3+2PWNA1zXzAKoLZA4s2vgN5thKL4sN7SwoMYuVthRYZM9QC
MIGcZHFlUc4qsnHWyN/3bEcPQvKaS3sEMea5K63HevECnwoV8V6ITMUejKGjPlPX
Rl5sZFd2P6nn49BJZ3jcnJ22GpHNVnhaVYQvUPo0R46OpEpdLk62YiL/V1ff5zcT
n/qBIHtVpntzMHWBfAsrCBlmlpncGWUxMSWH7PvAqyBpVq3iJNSeyBjwKI9kql2h
afby+6iHS/0kHmmYQjjjMdmymo9+/mSKBeSr392X0/3iUZE9XJJk4T7HxpG4ChWE
s4Zo776QRYCyaKLTZMuNCIILr/f0D/HONJaPUW5+9/Xh4+UAVt3QQQ4Bgg+BYL4R
GlxpAVki7aiE9uq/BTYtYQhv1L983ZQUuk0ohmO16mag1IiQeH5cu8L8QqLWTBDT
cZ00WSJ/9JRTp99KuloQ39hDLGCOMxfGcphBHFyYSM2r3l1v/n1EXyHJsQCDnLP5
snsE0ZS3h1yssT1FZxoFUCxYNIA8I3fH9vO6XzbkYnMUPcmOMbWVaYGX8RhmNQal
eak+xklhurcXPuwu7L4n6jGoacUR/rX101DZcpWk
-----END CERTIFICATE-----
