Certificate:
    Data:
        Version: 3 (0x2)
        Serial Number: 7 (0x7)
        Signature Algorithm: sha512WithRSAEncryption
        Issuer: C=DE, O=Damaschkestr. 11, OU=Arbeitszimmer, CN=Dama11 Lab Root CA
        Validity
            Not Before: Oct  5 06:57:07 2025 GMT
            Not After : Nov 30 23:59:59 2030 GMT
        Subject: C=DE, O=Damaschkestr. 11, OU=Arbeitszimmer, CN=Dama11 Lab Identity Bridge CA
        Subject Public Key Info:
            Public Key Algorithm: rsaEncryption
                Public-Key: (4096 bit)
                Modulus:
                    00:ba:ac:a9:50:15:0a:09:6a:c0:df:e2:c7:5b:41:
                    9c:e4:e6:0c:e7:40:94:43:0b:33:aa:05:3f:a0:fc:
                    78:8e:d0:59:19:06:0a:ab:a5:c6:04:dd:24:36:ae:
                    03:a0:99:63:4f:c2:8c:db:73:0b:e7:ab:49:ea:60:
                    1f:47:7b:b9:e9:e5:7a:3c:1b:fe:d6:b6:9d:93:0f:
                    c2:ef:ab:20:87:c1:80:e3:69:aa:9f:c9:37:fe:0d:
                    79:a3:6d:67:73:9f:df:aa:be:ca:69:b0:af:f1:5e:
                    c6:6e:71:2c:66:6f:53:60:27:11:19:cb:77:58:4e:
                    d4:88:3f:c6:ac:97:51:87:35:80:bb:e0:c8:6d:12:
                    53:54:cf:c9:3c:f6:3f:d9:b2:ad:f4:ef:02:8b:35:
                    f1:5a:d6:00:66:3e:d9:b7:15:3d:83:d2:e9:3d:9f:
                    b9:4e:31:99:a5:b0:e9:b1:01:ac:2f:10:a3:83:07:
                    34:55:b8:16:6f:c3:f0:82:84:36:86:49:de:9c:11:
                    c6:32:dd:8b:67:03:15:93:9b:5d:de:6d:03:a2:51:
                    15:8e:e9:2d:6a:a5:2a:ce:a1:81:69:77:17:5e:d5:
                    73:5c:66:79:a1:2b:da:6a:8a:3f:e5:06:fc:d1:0d:
                    b1:3f:26:74:12:66:a1:88:5e:49:36:8f:92:12:9b:
                    97:49:64:2f:73:98:3a:ff:f7:d2:5d:5c:b2:73:e2:
                    1a:d7:90:bb:8b:d1:5b:86:9b:1b:5c:3f:23:e8:62:
                    60:c5:fb:d1:57:d8:ce:76:4b:de:49:9c:4f:07:16:
                    7e:f7:36:09:ad:8e:a9:c1:0e:14:57:f1:96:00:6c:
                    0b:94:f8:01:0a:9a:14:a1:db:32:93:83:6e:09:6f:
                    d1:d7:0c:2a:61:01:f5:ae:5e:cf:7a:11:15:38:46:
                    69:3c:f0:d5:45:ae:bf:b2:86:b4:ee:9e:4d:2f:30:
                    bc:e0:09:fe:56:d2:44:33:a6:6f:0c:65:83:7e:d0:
                    84:86:c9:91:db:4f:26:87:95:f1:5d:a7:d0:c5:e7:
                    e1:67:0b:58:d2:b4:55:d7:6a:e3:8f:9a:71:35:37:
                    71:dc:68:59:3c:c9:39:99:14:c0:79:76:3c:dc:4b:
                    2b:71:e4:4d:82:58:78:97:f1:31:50:9c:44:85:8a:
                    6b:c6:63:4c:cf:08:1d:cb:e8:98:31:87:ac:3d:c6:
                    88:a8:2a:51:b7:59:56:a0:16:08:07:35:84:51:d8:
                    b9:a8:a9:96:80:86:76:e4:1b:46:09:94:87:90:d3:
                    9a:89:50:68:a8:37:b1:f1:77:df:d1:57:b3:ac:c1:
                    63:ce:d4:1b:21:9e:33:74:06:0e:65:96:1b:5c:2d:
                    0f:7f:cf
                Exponent: 65537 (0x10001)
        X509v3 extensions:
            X509v3 Key Usage: critical
                Certificate Sign, CRL Sign
            X509v3 Basic Constraints: critical
                CA:TRUE
            X509v3 Subject Key Identifier: 
                11:C3:BB:0E:05:08:9F:78:35:62:AB:ED:99:E8:B6:73:70:A5:64:6C
            X509v3 Authority Key Identifier: 
                01:B2:2D:56:3C:87:7F:A8:5F:61:BC:58:01:BF:1E:FD:4A:CA:CA:8D
            Authority Information Access: 
                CA Issuers - URI:https://elbosso.github.io/x509//Dama11_Root_CA-ca.crt
            X509v3 CRL Distribution Points: 
                Full Name:
                  URI:https://elbosso.github.io/x509//Dama11_Root_CA-ca.crl
    Signature Algorithm: sha512WithRSAEncryption
    Signature Value:
        8f:b4:e8:dd:49:76:08:df:86:04:d9:fb:fe:bf:b0:78:17:24:
        7c:e9:f7:08:f1:cc:ea:37:bf:41:a9:80:27:74:8d:53:46:4c:
        3e:aa:1e:d4:56:5b:63:1e:db:33:30:a8:fa:35:e4:12:a0:f7:
        d0:bf:37:c3:8a:4a:b1:3d:cb:68:0d:cb:cc:98:9a:e8:60:ab:
        b9:93:d6:b3:8a:28:c2:53:94:0e:a8:f4:01:d3:eb:b7:db:f0:
        51:6e:e9:a3:bf:df:f9:72:99:60:ad:c9:ff:4f:54:c4:3f:fd:
        8a:b1:03:6a:95:82:04:51:10:cf:52:d7:6e:89:87:f1:4c:7c:
        ef:39:d5:72:d0:fc:fc:3b:2c:86:2b:d3:26:ab:09:46:ec:be:
        05:63:19:72:77:f0:62:4d:69:66:94:55:16:c7:6e:41:d5:74:
        33:9f:d4:14:7b:37:13:a3:cd:b3:8f:e6:5f:90:1d:a6:e2:14:
        2b:a7:c2:e2:55:4d:20:a6:bc:7c:cf:40:c4:df:4e:81:70:2f:
        fc:fe:b6:df:37:a5:33:f8:70:f3:cb:a1:e2:5e:cd:5a:67:3d:
        5f:9b:59:6c:fa:b5:46:a6:37:d5:8c:68:f1:fb:3e:91:a0:64:
        2f:e0:7d:bc:8e:37:8c:00:88:95:1c:b9:f5:d8:21:4b:88:c7:
        f9:35:df:d2:6d:e9:4a:df:ea:7a:88:41:9f:d9:ed:9b:cd:c7:
        3b:85:d1:7d:4c:7f:e7:f4:2c:40:c2:e2:16:34:2d:03:4a:b7:
        83:05:cf:8b:f7:fa:06:5b:3a:6f:68:9e:b1:e2:1e:48:d5:8c:
        06:b2:9f:56:a1:f0:49:dc:d3:00:75:c4:a3:c1:d7:74:44:1e:
        1e:bf:45:14:0a:1e:83:82:19:fd:2b:dc:de:74:6d:52:aa:9d:
        a8:56:dc:ac:52:71:be:24:93:2a:48:e8:09:dd:46:a8:cd:c9:
        c8:58:39:c2:79:69:f2:8e:f3:ee:be:0a:a8:1d:30:9b:96:3a:
        f1:71:5d:64:cb:0b:17:8f:59:76:ec:e6:f4:31:4f:54:05:66:
        31:ed:70:02:42:32:39:91:66:ab:ae:be:00:59:91:01:a3:c7:
        06:e5:3b:e5:c6:16:b3:cc:8f:0a:b5:93:6a:c7:fd:6c:63:db:
        9b:1e:c1:3d:d6:6e:07:2a:f5:35:df:49:5a:cc:5a:be:db:5a:
        94:f3:87:64:dc:63:dc:1e:a0:47:b8:5d:29:a8:4e:aa:cd:53:
        ec:22:8b:d6:6b:9e:fc:d9:60:c4:a1:b8:34:76:de:77:d9:1d:
        9e:20:71:c3:2e:62:4a:a0:70:39:9c:4d:83:5c:4a:67:4e:16:
        f6:ba:ea:90:43:84:47:8a
-----BEGIN CERTIFICATE-----
MIIGQDCCBCigAwIBAgIBBzANBgkqhkiG9w0BAQ0FADBdMQswCQYDVQQGEwJERTEZ
MBcGA1UECgwQRGFtYXNjaGtlc3RyLiAxMTEWMBQGA1UECwwNQXJiZWl0c3ppbW1l
cjEbMBkGA1UEAwwSRGFtYTExIExhYiBSb290IENBMB4XDTI1MTAwNTA2NTcwN1oX
DTMwMTEzMDIzNTk1OVowaDELMAkGA1UEBhMCREUxGTAXBgNVBAoMEERhbWFzY2hr
ZXN0ci4gMTExFjAUBgNVBAsMDUFyYmVpdHN6aW1tZXIxJjAkBgNVBAMMHURhbWEx
MSBMYWIgSWRlbnRpdHkgQnJpZGdlIENBMIICIjANBgkqhkiG9w0BAQEFAAOCAg8A
MIICCgKCAgEAuqypUBUKCWrA3+LHW0Gc5OYM50CUQwszqgU/oPx4jtBZGQYKq6XG
BN0kNq4DoJljT8KM23ML56tJ6mAfR3u56eV6PBv+1radkw/C76sgh8GA42mqn8k3
/g15o21nc5/fqr7KabCv8V7GbnEsZm9TYCcRGct3WE7UiD/GrJdRhzWAu+DIbRJT
VM/JPPY/2bKt9O8CizXxWtYAZj7ZtxU9g9LpPZ+5TjGZpbDpsQGsLxCjgwc0VbgW
b8PwgoQ2hknenBHGMt2LZwMVk5td3m0DolEVjuktaqUqzqGBaXcXXtVzXGZ5oSva
aoo/5Qb80Q2xPyZ0EmahiF5JNo+SEpuXSWQvc5g6//fSXVyyc+Ia15C7i9Fbhpsb
XD8j6GJgxfvRV9jOdkveSZxPBxZ+9zYJrY6pwQ4UV/GWAGwLlPgBCpoUodsyk4Nu
CW/R1wwqYQH1rl7PehEVOEZpPPDVRa6/soa07p5NLzC84An+VtJEM6ZvDGWDftCE
hsmR208mh5XxXafQxefhZwtY0rRV12rjj5pxNTdx3GhZPMk5mRTAeXY83EsrceRN
glh4l/ExUJxEhYprxmNMzwgdy+iYMYesPcaIqCpRt1lWoBYIBzWEUdi5qKmWgIZ2
5BtGCZSHkNOaiVBoqDex8Xff0VezrMFjztQbIZ4zdAYOZZYbXC0Pf88CAwEAAaOB
/zCB/DAOBgNVHQ8BAf8EBAMCAQYwDwYDVR0TAQH/BAUwAwEB/zAdBgNVHQ4EFgQU
EcO7DgUIn3g1Yqvtmei2c3ClZGwwHwYDVR0jBBgwFoAUAbItVjyHf6hfYbxYAb8e
/UrKyo0wUQYIKwYBBQUHAQEERTBDMEEGCCsGAQUFBzAChjVodHRwczovL2VsYm9z
c28uZ2l0aHViLmlvL3g1MDkvL0RhbWExMV9Sb290X0NBLWNhLmNydDBGBgNVHR8E
PzA9MDugOaA3hjVodHRwczovL2VsYm9zc28uZ2l0aHViLmlvL3g1MDkvL0RhbWEx
MV9Sb290X0NBLWNhLmNybDANBgkqhkiG9w0BAQ0FAAOCAgEAj7To3Ul2CN+GBNn7
/r+weBckfOn3CPHM6je/QamAJ3SNU0ZMPqoe1FZbYx7bMzCo+jXkEqD30L83w4pK
sT3LaA3LzJia6GCruZPWs4oowlOUDqj0AdPrt9vwUW7po7/f+XKZYK3J/09UxD/9
irEDapWCBFEQz1LXbomH8Ux87znVctD8/DsshivTJqsJRuy+BWMZcnfwYk1pZpRV
FsduQdV0M5/UFHs3E6PNs4/mX5AdpuIUK6fC4lVNIKa8fM9AxN9OgXAv/P623zel
M/hw88uh4l7NWmc9X5tZbPq1RqY31Yxo8fs+kaBkL+B9vI43jACIlRy59dghS4jH
+TXf0m3pSt/qeohBn9ntm83HO4XRfUx/5/QsQMLiFjQtA0q3gwXPi/f6Bls6b2ie
seIeSNWMBrKfVqHwSdzTAHXEo8HXdEQeHr9FFAoeg4IZ/Svc3nRtUqqdqFbcrFJx
viSTKkjoCd1GqM3JyFg5wnlp8o7z7r4KqB0wm5Y68XFdZMsLF49Zduzm9DFPVAVm
Me1wAkIyOZFmq66+AFmRAaPHBuU75cYWs8yPCrWTasf9bGPbmx7BPdZuByr1Nd9J
WsxavttalPOHZNxj3B6gR7hdKahOqs1T7CKL1mue/NlgxKG4NHbed9kdniBxwy5i
SqBwOZxNg1xKZ04W9rrqkEOER4o=
-----END CERTIFICATE-----
