Certificate:
    Data:
        Version: 3 (0x2)
        Serial Number: 5 (0x5)
        Signature Algorithm: sha512WithRSAEncryption
        Issuer: C=DE, O=Damaschkestr. 11, OU=Arbeitszimmer, CN=Dama11 Lab Intermediary CA
        Validity
            Not Before: Feb  5 07:12:50 2023 GMT
            Not After : Feb  5 23:59:59 2026 GMT
        Subject: C=DE, O=Damaschkestr. 11, OU=Arbeitszimmer, CN=Dama11 Lab MitmProxy CA
        Subject Public Key Info:
            Public Key Algorithm: rsaEncryption
                RSA Public-Key: (4096 bit)
                Modulus:
                    00:b2:d1:53:e1:2b:05:45:37:3b:f7:49:37:31:b1:
                    1d:5d:08:e0:6a:b0:cb:fe:32:01:0c:b9:02:64:a7:
                    5d:4f:ca:37:b5:6b:21:02:79:b2:29:59:58:cb:fe:
                    a9:52:4f:62:c3:41:34:8a:f9:0d:ed:00:c9:c1:5d:
                    5e:a3:dd:76:08:49:2f:7c:8c:a6:fc:81:37:5c:ff:
                    1e:48:63:01:ef:2c:61:60:b7:94:ca:a0:10:95:a1:
                    93:cc:40:1e:6c:9f:64:8f:c4:b3:85:ea:27:b4:c6:
                    3e:bc:30:b3:d6:f1:03:a0:24:a9:82:ca:84:1d:22:
                    f5:e1:1d:8d:4b:a5:78:fb:d9:ee:3e:88:08:14:13:
                    65:98:56:95:03:3c:f7:b9:3b:73:4e:35:c9:e0:b1:
                    d0:fa:3f:91:22:7a:14:c1:ae:0f:a3:2d:e8:ed:63:
                    f9:37:a5:40:d5:66:99:0d:e9:e1:d9:fd:29:74:46:
                    35:1f:76:f8:ae:82:44:c8:87:b5:68:af:af:74:b2:
                    1a:d8:fa:b4:39:ad:16:2b:55:95:ae:d8:fd:59:c0:
                    b7:d2:ca:a2:d4:95:ce:a2:35:cc:98:2a:49:50:87:
                    22:dd:d2:25:95:bf:49:1b:87:b8:3a:5c:2d:74:57:
                    90:c2:d6:61:82:34:7d:ab:ad:23:6d:56:5f:12:d3:
                    b0:eb:7e:35:7e:d9:ca:42:8c:48:c2:5a:b7:ff:9c:
                    87:4a:9c:34:01:f9:e0:ec:ee:db:35:77:e5:92:50:
                    03:ab:6c:b3:47:7f:ad:11:ba:11:93:f7:0b:10:15:
                    e3:2c:80:08:89:ae:64:b5:7d:fd:32:69:45:b5:8e:
                    4d:5b:74:6b:e3:1d:30:51:75:c1:21:31:e0:ce:25:
                    5c:29:5d:b7:8c:4a:d3:7f:91:0f:04:ec:19:45:19:
                    79:b5:94:39:1b:9c:76:25:c9:7e:34:4d:6e:7f:21:
                    11:09:3b:c0:04:76:69:c8:d9:42:30:70:06:3c:dd:
                    be:33:96:13:1d:44:df:a0:11:d5:02:9c:bd:32:90:
                    4b:b4:96:dc:19:50:80:78:89:b6:f3:14:6e:af:20:
                    96:ed:c5:bf:89:64:e4:1e:07:95:dd:cf:70:84:a0:
                    6c:25:be:38:db:ed:36:ce:62:33:e7:e2:80:a2:98:
                    4e:81:9b:3c:67:d3:fa:51:64:5b:ad:58:ec:ce:08:
                    15:32:7b:06:97:1f:96:06:fa:e8:8f:ed:ae:d4:14:
                    c3:1f:5f:76:12:8d:04:4f:f5:f5:fe:52:d6:95:51:
                    98:95:64:93:e9:52:27:c3:72:fc:e5:40:62:5d:76:
                    5d:8c:8f:cb:d5:d0:b9:2e:43:38:30:d8:0d:c1:92:
                    64:a6:d5
                Exponent: 65537 (0x10001)
        X509v3 extensions:
            X509v3 Key Usage: critical
                Certificate Sign, CRL Sign
            X509v3 Basic Constraints: critical
                CA:TRUE, pathlen:0
            X509v3 Subject Key Identifier: 
                54:03:7B:31:C8:36:98:1F:AD:3F:B7:1B:09:19:4A:F1:D1:D3:14:27
            X509v3 Authority Key Identifier: 
                keyid:5F:17:9E:B3:3D:7C:34:C0:A1:9B:73:99:DA:3C:34:44:74:57:80:16

            Authority Information Access: 
                CA Issuers - URI:https://elbosso.github.io/x509//Dama11_Intermediary_CA-ca.crt

            X509v3 CRL Distribution Points: 

                Full Name:
                  URI:https://elbosso.github.io/x509//Dama11_Intermediary_CA-ca.crl

    Signature Algorithm: sha512WithRSAEncryption
         20:84:1a:21:1e:16:f0:85:f2:d2:57:35:82:b7:92:4d:24:62:
         35:bd:19:65:9c:ee:9f:fe:a6:45:4a:62:d6:99:ca:d6:fa:89:
         b3:a4:a8:3a:ea:1a:9f:8f:2b:f6:7d:58:04:87:1f:d7:df:f6:
         b4:13:bf:0d:28:a8:4e:b3:ae:f3:2b:1b:c1:06:4d:14:84:2d:
         03:69:f8:80:4a:c4:49:fd:89:64:17:1e:94:a9:f3:38:b1:ae:
         ae:92:c5:9d:29:11:5c:d9:d1:bc:e2:16:7f:14:66:84:ee:d1:
         a5:7e:77:8f:b8:b8:4d:cb:86:4c:af:81:76:51:c8:46:cf:97:
         ad:6b:c8:a2:38:40:25:f9:bd:ce:77:00:ff:8f:48:51:03:ce:
         9d:5b:ec:9c:f2:d2:b0:3d:57:bb:c4:f9:05:cd:7f:f7:23:59:
         54:ce:18:1b:62:86:3a:53:bd:f5:30:37:89:83:ec:f0:86:6f:
         cd:f6:90:b3:35:61:f1:06:cf:4b:d2:ba:0f:ef:b5:eb:59:10:
         5a:a9:8f:e6:fd:6e:9d:ab:d6:f3:8d:2c:99:9a:cd:84:ef:65:
         32:3a:c4:15:4e:ca:97:8c:7d:30:78:5c:34:4a:7c:15:d1:3d:
         56:7b:c4:24:c6:56:20:e1:1e:4b:4e:88:d0:5d:e8:ec:55:cb:
         ec:05:eb:c3:1a:f8:a1:9f:67:07:66:e5:8c:b6:bf:f2:84:27:
         d9:bf:3c:a3:07:40:6b:39:2a:1d:f1:74:e7:79:d8:4e:a2:18:
         7e:7b:89:af:31:0c:5e:3b:02:01:8f:97:a1:6f:4b:3a:07:46:
         6b:86:e5:1f:ee:a7:5e:f1:7d:7b:20:63:a0:96:6d:b9:62:fb:
         54:8d:4a:c3:8a:3f:fb:69:4a:d9:c7:dc:6d:5f:78:54:59:71:
         9c:5c:93:62:5e:7a:cc:43:9d:b6:1d:e8:56:ed:3d:49:e4:75:
         6a:bd:08:9d:fa:bd:fe:f4:68:ce:b7:b7:be:54:91:0e:f9:0e:
         6b:ed:4b:3f:a6:f3:62:c1:0b:b3:30:f0:03:c6:03:e5:3c:86:
         d1:cd:de:6b:44:76:95:6c:2f:81:2f:dc:7a:4b:be:3f:6b:40:
         ed:87:ec:3f:f8:82:60:38:6c:c5:cd:33:cd:30:e3:cb:b8:73:
         7b:9a:19:03:b2:9c:53:d8:31:d1:b4:3b:78:9b:4f:86:d6:d7:
         c5:e7:6e:e6:c0:a6:28:47:21:5c:2d:b9:0b:5b:b8:a9:2b:25:
         f1:38:00:b6:03:c2:55:1a:2c:af:06:e2:eb:24:3d:c1:cf:d1:
         dd:82:13:e7:05:ac:8a:10:04:f7:ce:15:0e:c6:27:8f:37:89:
         b0:7b:01:5a:62:16:5f:52
-----BEGIN CERTIFICATE-----
MIIGVzCCBD+gAwIBAgIBBTANBgkqhkiG9w0BAQ0FADBlMQswCQYDVQQGEwJERTEZ
MBcGA1UECgwQRGFtYXNjaGtlc3RyLiAxMTEWMBQGA1UECwwNQXJiZWl0c3ppbW1l
cjEjMCEGA1UEAwwaRGFtYTExIExhYiBJbnRlcm1lZGlhcnkgQ0EwHhcNMjMwMjA1
MDcxMjUwWhcNMjYwMjA1MjM1OTU5WjBiMQswCQYDVQQGEwJERTEZMBcGA1UECgwQ
RGFtYXNjaGtlc3RyLiAxMTEWMBQGA1UECwwNQXJiZWl0c3ppbW1lcjEgMB4GA1UE
AwwXRGFtYTExIExhYiBNaXRtUHJveHkgQ0EwggIiMA0GCSqGSIb3DQEBAQUAA4IC
DwAwggIKAoICAQCy0VPhKwVFNzv3STcxsR1dCOBqsMv+MgEMuQJkp11Pyje1ayEC
ebIpWVjL/qlST2LDQTSK+Q3tAMnBXV6j3XYISS98jKb8gTdc/x5IYwHvLGFgt5TK
oBCVoZPMQB5sn2SPxLOF6ie0xj68MLPW8QOgJKmCyoQdIvXhHY1LpXj72e4+iAgU
E2WYVpUDPPe5O3NONcngsdD6P5EiehTBrg+jLejtY/k3pUDVZpkN6eHZ/Sl0RjUf
dviugkTIh7Vor690shrY+rQ5rRYrVZWu2P1ZwLfSyqLUlc6iNcyYKklQhyLd0iWV
v0kbh7g6XC10V5DC1mGCNH2rrSNtVl8S07DrfjV+2cpCjEjCWrf/nIdKnDQB+eDs
7ts1d+WSUAOrbLNHf60RuhGT9wsQFeMsgAiJrmS1ff0yaUW1jk1bdGvjHTBRdcEh
MeDOJVwpXbeMStN/kQ8E7BlFGXm1lDkbnHYlyX40TW5/IREJO8AEdmnI2UIwcAY8
3b4zlhMdRN+gEdUCnL0ykEu0ltwZUIB4ibbzFG6vIJbtxb+JZOQeB5Xdz3CEoGwl
vjjb7TbOYjPn4oCimE6Bmzxn0/pRZFutWOzOCBUyewaXH5YG+uiP7a7UFMMfX3YS
jQRP9fX+UtaVUZiVZJPpUifDcvzlQGJddl2Mj8vV0LkuQzgw2A3BkmSm1QIDAQAB
o4IBEzCCAQ8wDgYDVR0PAQH/BAQDAgEGMBIGA1UdEwEB/wQIMAYBAf8CAQAwHQYD
VR0OBBYEFFQDezHINpgfrT+3GwkZSvHR0xQnMB8GA1UdIwQYMBaAFF8XnrM9fDTA
oZtzmdo8NER0V4AWMFkGCCsGAQUFBwEBBE0wSzBJBggrBgEFBQcwAoY9aHR0cHM6
Ly9lbGJvc3NvLmdpdGh1Yi5pby94NTA5Ly9EYW1hMTFfSW50ZXJtZWRpYXJ5X0NB
LWNhLmNydDBOBgNVHR8ERzBFMEOgQaA/hj1odHRwczovL2VsYm9zc28uZ2l0aHVi
LmlvL3g1MDkvL0RhbWExMV9JbnRlcm1lZGlhcnlfQ0EtY2EuY3JsMA0GCSqGSIb3
DQEBDQUAA4ICAQAghBohHhbwhfLSVzWCt5JNJGI1vRllnO6f/qZFSmLWmcrW+omz
pKg66hqfjyv2fVgEhx/X3/a0E78NKKhOs67zKxvBBk0UhC0DafiASsRJ/YlkFx6U
qfM4sa6uksWdKRFc2dG84hZ/FGaE7tGlfnePuLhNy4ZMr4F2UchGz5eta8iiOEAl
+b3OdwD/j0hRA86dW+yc8tKwPVe7xPkFzX/3I1lUzhgbYoY6U731MDeJg+zwhm/N
9pCzNWHxBs9L0roP77XrWRBaqY/m/W6dq9bzjSyZms2E72UyOsQVTsqXjH0weFw0
SnwV0T1We8QkxlYg4R5LTojQXejsVcvsBevDGvihn2cHZuWMtr/yhCfZvzyjB0Br
OSod8XTnedhOohh+e4mvMQxeOwIBj5ehb0s6B0ZrhuUf7qde8X17IGOglm25YvtU
jUrDij/7aUrZx9xtX3hUWXGcXJNiXnrMQ522HehW7T1J5HVqvQid+r3+9GjOt7e+
VJEO+Q5r7Us/pvNiwQuzMPADxgPlPIbRzd5rRHaVbC+BL9x6S74/a0Dth+w/+IJg
OGzFzTPNMOPLuHN7mhkDspxT2DHRtDt4m0+G1tfF527mwKYoRyFcLbkLW7ipKyXx
OAC2A8JVGiyvBuLrJD3Bz9HdghPnBayKEAT3zhUOxiePN4mwewFaYhZfUg==
-----END CERTIFICATE-----
