Certificate:
    Data:
        Version: 3 (0x2)
        Serial Number: 12 (0xc)
        Signature Algorithm: sha512WithRSAEncryption
        Issuer: C=DE, O=Damaschkestr. 11, OU=Arbeitszimmer, CN=Dama11 Lab Intermediary CA
        Validity
            Not Before: Oct  5 06:48:15 2025 GMT
            Not After : Oct  5 23:59:59 2028 GMT
        Subject: C=DE, O=Damaschkestr. 11, OU=Arbeitszimmer, CN=Dama11 Lab MitmProxy CA
        Subject Public Key Info:
            Public Key Algorithm: rsaEncryption
                Public-Key: (4096 bit)
                Modulus:
                    00:b2:d1:53:e1:2b:05:45:37:3b:f7:49:37:31:b1:
                    1d:5d:08:e0:6a:b0:cb:fe:32:01:0c:b9:02:64:a7:
                    5d:4f:ca:37:b5:6b:21:02:79:b2:29:59:58:cb:fe:
                    a9:52:4f:62:c3:41:34:8a:f9:0d:ed:00:c9:c1:5d:
                    5e:a3:dd:76:08:49:2f:7c:8c:a6:fc:81:37:5c:ff:
                    1e:48:63:01:ef:2c:61:60:b7:94:ca:a0:10:95:a1:
                    93:cc:40:1e:6c:9f:64:8f:c4:b3:85:ea:27:b4:c6:
                    3e:bc:30:b3:d6:f1:03:a0:24:a9:82:ca:84:1d:22:
                    f5:e1:1d:8d:4b:a5:78:fb:d9:ee:3e:88:08:14:13:
                    65:98:56:95:03:3c:f7:b9:3b:73:4e:35:c9:e0:b1:
                    d0:fa:3f:91:22:7a:14:c1:ae:0f:a3:2d:e8:ed:63:
                    f9:37:a5:40:d5:66:99:0d:e9:e1:d9:fd:29:74:46:
                    35:1f:76:f8:ae:82:44:c8:87:b5:68:af:af:74:b2:
                    1a:d8:fa:b4:39:ad:16:2b:55:95:ae:d8:fd:59:c0:
                    b7:d2:ca:a2:d4:95:ce:a2:35:cc:98:2a:49:50:87:
                    22:dd:d2:25:95:bf:49:1b:87:b8:3a:5c:2d:74:57:
                    90:c2:d6:61:82:34:7d:ab:ad:23:6d:56:5f:12:d3:
                    b0:eb:7e:35:7e:d9:ca:42:8c:48:c2:5a:b7:ff:9c:
                    87:4a:9c:34:01:f9:e0:ec:ee:db:35:77:e5:92:50:
                    03:ab:6c:b3:47:7f:ad:11:ba:11:93:f7:0b:10:15:
                    e3:2c:80:08:89:ae:64:b5:7d:fd:32:69:45:b5:8e:
                    4d:5b:74:6b:e3:1d:30:51:75:c1:21:31:e0:ce:25:
                    5c:29:5d:b7:8c:4a:d3:7f:91:0f:04:ec:19:45:19:
                    79:b5:94:39:1b:9c:76:25:c9:7e:34:4d:6e:7f:21:
                    11:09:3b:c0:04:76:69:c8:d9:42:30:70:06:3c:dd:
                    be:33:96:13:1d:44:df:a0:11:d5:02:9c:bd:32:90:
                    4b:b4:96:dc:19:50:80:78:89:b6:f3:14:6e:af:20:
                    96:ed:c5:bf:89:64:e4:1e:07:95:dd:cf:70:84:a0:
                    6c:25:be:38:db:ed:36:ce:62:33:e7:e2:80:a2:98:
                    4e:81:9b:3c:67:d3:fa:51:64:5b:ad:58:ec:ce:08:
                    15:32:7b:06:97:1f:96:06:fa:e8:8f:ed:ae:d4:14:
                    c3:1f:5f:76:12:8d:04:4f:f5:f5:fe:52:d6:95:51:
                    98:95:64:93:e9:52:27:c3:72:fc:e5:40:62:5d:76:
                    5d:8c:8f:cb:d5:d0:b9:2e:43:38:30:d8:0d:c1:92:
                    64:a6:d5
                Exponent: 65537 (0x10001)
        X509v3 extensions:
            X509v3 Key Usage: critical
                Certificate Sign, CRL Sign
            X509v3 Basic Constraints: critical
                CA:TRUE, pathlen:0
            X509v3 Subject Key Identifier: 
                54:03:7B:31:C8:36:98:1F:AD:3F:B7:1B:09:19:4A:F1:D1:D3:14:27
            X509v3 Authority Key Identifier: 
                5F:17:9E:B3:3D:7C:34:C0:A1:9B:73:99:DA:3C:34:44:74:57:80:16
            Authority Information Access: 
                CA Issuers - URI:https://elbosso.github.io/x509//Dama11_Intermediary_CA-ca.crt
            X509v3 CRL Distribution Points: 
                Full Name:
                  URI:https://elbosso.github.io/x509//Dama11_Intermediary_CA-ca.crl
    Signature Algorithm: sha512WithRSAEncryption
    Signature Value:
        34:03:84:77:4b:c4:fa:c8:84:70:4c:12:a5:fe:8e:df:18:c3:
        4b:30:c6:6d:b7:9b:4d:c9:e6:ad:b9:c1:bb:f3:2b:26:4a:2d:
        40:9e:3e:e1:ad:ec:95:e3:61:17:45:b2:6f:69:69:c6:6e:2e:
        30:4f:53:2d:6e:c5:8c:c2:a8:cf:5a:fb:73:23:4a:96:42:d9:
        9a:d8:f7:1f:62:92:ea:34:27:21:6a:88:8d:58:e6:08:7c:80:
        03:7f:08:9e:74:64:44:5b:c8:76:3c:d1:9d:0f:0b:16:4c:d8:
        23:eb:96:1e:9b:f0:64:f6:8d:3f:34:e9:0e:83:eb:8d:11:84:
        fd:2f:e5:1c:fb:e0:97:5a:39:36:20:d8:cc:49:35:34:77:a4:
        f0:0f:07:44:0f:50:8c:fc:e8:f9:4c:18:5d:65:30:e5:61:25:
        6e:cb:f1:cd:b7:e4:54:35:66:cb:61:73:e5:c1:67:44:2e:7f:
        d3:5d:ad:39:63:9c:2c:55:e4:e8:9c:7f:4a:eb:45:22:a3:3c:
        31:df:23:bb:17:fe:28:26:6d:69:e4:43:c1:63:6e:c7:5b:7a:
        df:0e:c0:08:1e:90:24:74:94:ba:81:15:c6:4b:4c:29:95:d3:
        ed:24:a0:cd:e9:81:55:f4:97:24:75:62:1a:23:2d:da:ba:88:
        55:02:fe:86:94:a2:5c:b5:2e:41:5e:be:0b:eb:ce:32:49:b8:
        16:9c:7e:41:70:f6:40:27:93:ce:83:dc:ac:ff:87:b3:65:b1:
        3c:76:3a:b7:b3:6c:c0:bb:fa:5b:93:d5:a2:d1:79:32:f4:95:
        8e:8a:d7:61:be:9a:b8:5a:39:22:f8:7d:76:7e:33:e1:96:49:
        86:2e:90:b7:01:87:b9:b8:c4:85:8d:5d:0a:ec:62:60:e4:38:
        05:f7:85:c5:f6:80:ab:52:87:8c:b9:9d:3a:69:be:a3:5a:00:
        2b:e8:20:ef:b5:db:6f:9c:75:07:0e:75:6c:4b:5a:be:51:ab:
        b2:43:e9:82:f2:11:e0:c6:79:39:3b:26:55:9f:e9:08:25:c5:
        d0:3a:ae:5f:44:61:2d:18:82:6b:26:be:74:1e:10:03:de:00:
        5c:8d:64:03:0f:da:35:8c:0b:e3:cb:a8:51:bd:6c:70:26:bd:
        96:78:42:34:eb:f7:ac:45:7c:29:ea:91:ed:06:3f:9f:a9:09:
        a3:e5:93:f9:f9:5f:02:da:1f:49:df:52:12:dc:e8:a8:52:27:
        3f:f5:ec:24:ba:d9:ca:5a:6f:63:0b:a2:1b:a2:0a:6a:2a:bf:
        73:c5:90:a7:3e:ce:7e:06:38:3a:34:ef:4f:ed:85:9b:2a:14:
        0d:ac:c3:de:ac:30:2a:e0
-----BEGIN CERTIFICATE-----
MIIGVzCCBD+gAwIBAgIBDDANBgkqhkiG9w0BAQ0FADBlMQswCQYDVQQGEwJERTEZ
MBcGA1UECgwQRGFtYXNjaGtlc3RyLiAxMTEWMBQGA1UECwwNQXJiZWl0c3ppbW1l
cjEjMCEGA1UEAwwaRGFtYTExIExhYiBJbnRlcm1lZGlhcnkgQ0EwHhcNMjUxMDA1
MDY0ODE1WhcNMjgxMDA1MjM1OTU5WjBiMQswCQYDVQQGEwJERTEZMBcGA1UECgwQ
RGFtYXNjaGtlc3RyLiAxMTEWMBQGA1UECwwNQXJiZWl0c3ppbW1lcjEgMB4GA1UE
AwwXRGFtYTExIExhYiBNaXRtUHJveHkgQ0EwggIiMA0GCSqGSIb3DQEBAQUAA4IC
DwAwggIKAoICAQCy0VPhKwVFNzv3STcxsR1dCOBqsMv+MgEMuQJkp11Pyje1ayEC
ebIpWVjL/qlST2LDQTSK+Q3tAMnBXV6j3XYISS98jKb8gTdc/x5IYwHvLGFgt5TK
oBCVoZPMQB5sn2SPxLOF6ie0xj68MLPW8QOgJKmCyoQdIvXhHY1LpXj72e4+iAgU
E2WYVpUDPPe5O3NONcngsdD6P5EiehTBrg+jLejtY/k3pUDVZpkN6eHZ/Sl0RjUf
dviugkTIh7Vor690shrY+rQ5rRYrVZWu2P1ZwLfSyqLUlc6iNcyYKklQhyLd0iWV
v0kbh7g6XC10V5DC1mGCNH2rrSNtVl8S07DrfjV+2cpCjEjCWrf/nIdKnDQB+eDs
7ts1d+WSUAOrbLNHf60RuhGT9wsQFeMsgAiJrmS1ff0yaUW1jk1bdGvjHTBRdcEh
MeDOJVwpXbeMStN/kQ8E7BlFGXm1lDkbnHYlyX40TW5/IREJO8AEdmnI2UIwcAY8
3b4zlhMdRN+gEdUCnL0ykEu0ltwZUIB4ibbzFG6vIJbtxb+JZOQeB5Xdz3CEoGwl
vjjb7TbOYjPn4oCimE6Bmzxn0/pRZFutWOzOCBUyewaXH5YG+uiP7a7UFMMfX3YS
jQRP9fX+UtaVUZiVZJPpUifDcvzlQGJddl2Mj8vV0LkuQzgw2A3BkmSm1QIDAQAB
o4IBEzCCAQ8wDgYDVR0PAQH/BAQDAgEGMBIGA1UdEwEB/wQIMAYBAf8CAQAwHQYD
VR0OBBYEFFQDezHINpgfrT+3GwkZSvHR0xQnMB8GA1UdIwQYMBaAFF8XnrM9fDTA
oZtzmdo8NER0V4AWMFkGCCsGAQUFBwEBBE0wSzBJBggrBgEFBQcwAoY9aHR0cHM6
Ly9lbGJvc3NvLmdpdGh1Yi5pby94NTA5Ly9EYW1hMTFfSW50ZXJtZWRpYXJ5X0NB
LWNhLmNydDBOBgNVHR8ERzBFMEOgQaA/hj1odHRwczovL2VsYm9zc28uZ2l0aHVi
LmlvL3g1MDkvL0RhbWExMV9JbnRlcm1lZGlhcnlfQ0EtY2EuY3JsMA0GCSqGSIb3
DQEBDQUAA4ICAQA0A4R3S8T6yIRwTBKl/o7fGMNLMMZtt5tNyeatucG78ysmSi1A
nj7hreyV42EXRbJvaWnGbi4wT1MtbsWMwqjPWvtzI0qWQtma2PcfYpLqNCchaoiN
WOYIfIADfwiedGREW8h2PNGdDwsWTNgj65Yem/Bk9o0/NOkOg+uNEYT9L+Uc++CX
Wjk2INjMSTU0d6TwDwdED1CM/Oj5TBhdZTDlYSVuy/HNt+RUNWbLYXPlwWdELn/T
Xa05Y5wsVeTonH9K60Uiozwx3yO7F/4oJm1p5EPBY27HW3rfDsAIHpAkdJS6gRXG
S0wpldPtJKDN6YFV9JckdWIaIy3auohVAv6GlKJctS5BXr4L684ySbgWnH5BcPZA
J5POg9ys/4ezZbE8djq3s2zAu/pbk9Wi0Xky9JWOitdhvpq4Wjki+H12fjPhlkmG
LpC3AYe5uMSFjV0K7GJg5DgF94XF9oCrUoeMuZ06ab6jWgAr6CDvtdtvnHUHDnVs
S1q+UauyQ+mC8hHgxnk5OyZVn+kIJcXQOq5fRGEtGIJrJr50HhAD3gBcjWQDD9o1
jAvjy6hRvWxwJr2WeEI06/esRXwp6pHtBj+fqQmj5ZP5+V8C2h9J31IS3OioUic/
9ewkutnKWm9jC6IbogpqKr9zxZCnPs5+Bjg6NO9P7YWbKhQNrMPerDAq4A==
-----END CERTIFICATE-----
