Certificate:
    Data:
        Version: 3 (0x2)
        Serial Number: 10 (0xa)
        Signature Algorithm: sha512WithRSAEncryption
        Issuer: C=DE, O=Damaschkestr. 11, OU=Arbeitszimmer, CN=Dama11 Lab Intermediary Test CA
        Validity
            Not Before: Oct  5 07:04:53 2025 GMT
            Not After : Oct  6 23:59:59 2030 GMT
        Subject: C=DE, O=Damaschkestr. 11, OU=Arbeitszimmer, CN=Dama11 Lab Identity Test CA
        Subject Public Key Info:
            Public Key Algorithm: rsaEncryption
                Public-Key: (4096 bit)
                Modulus:
                    00:d7:ce:5c:38:1c:50:68:d7:de:6d:8b:30:9b:0c:
                    91:61:8d:07:5f:a6:81:b4:e0:da:fd:1b:48:b5:8a:
                    e8:c4:5f:e0:78:e9:a7:a9:83:1c:3f:ed:64:a1:bf:
                    7b:9c:ec:d8:bb:08:d8:6e:9f:72:85:ce:e3:c3:63:
                    e9:0d:22:bc:37:f9:e8:a3:96:5b:e9:d5:17:dc:ab:
                    13:07:00:73:0c:45:55:f0:bf:80:fe:59:ed:81:ab:
                    b5:40:ae:b3:5c:7a:aa:49:10:3a:a4:6a:83:50:86:
                    4b:d0:75:65:85:9c:94:5a:85:00:d5:16:85:3a:c9:
                    b1:5d:0e:8d:61:52:05:6f:35:44:00:34:50:9c:77:
                    7a:04:20:7d:78:75:41:41:66:bb:31:fa:fe:d4:b7:
                    d9:9e:83:05:cf:22:3e:18:c3:8f:5a:bd:ee:14:f9:
                    3a:78:6f:0b:82:1d:98:fa:e5:99:35:5b:f4:4d:5d:
                    c3:3f:89:c0:d1:39:8e:9e:8d:2d:62:32:4a:09:85:
                    8a:d0:c2:af:62:86:f5:97:5e:a0:31:da:41:50:3f:
                    f2:20:a9:37:ca:87:08:e7:b7:96:4f:48:ed:71:0e:
                    ca:24:db:09:4e:3b:d1:43:ee:02:a6:4c:31:ff:13:
                    3e:18:46:45:f2:41:33:f6:e9:c4:ba:c3:66:5e:5a:
                    79:21:20:2c:0e:bc:da:73:98:92:1f:16:78:56:f7:
                    6d:a2:fa:45:2c:06:35:67:8c:59:f1:fb:54:08:aa:
                    f6:dd:ff:16:5d:be:33:8c:dc:d4:11:9b:30:f3:81:
                    86:85:52:86:86:b1:df:82:84:77:11:85:ba:4c:17:
                    db:1e:ef:9d:e5:14:51:6c:b0:26:86:b5:a0:6f:1d:
                    d0:dd:f6:02:94:26:d8:63:d3:f4:c8:b1:39:51:ce:
                    cb:57:1a:85:a9:71:bc:c8:59:63:5e:78:03:eb:cd:
                    19:05:b0:5b:c5:3f:08:b2:fb:ee:51:8e:d7:2b:3a:
                    bd:62:4c:e7:79:0b:96:04:23:e2:2c:44:2f:9a:df:
                    ac:b0:b8:2a:e4:5b:5a:9c:60:6b:58:cb:51:bf:bd:
                    9b:5b:42:1f:d0:60:c7:27:42:07:e4:23:31:5a:28:
                    e2:a9:b5:43:f9:5a:24:62:c4:12:55:ab:65:26:74:
                    a6:70:37:93:96:05:f9:74:d0:b3:97:a2:9c:47:ed:
                    8c:4e:6f:98:d9:9f:e2:7c:01:f4:1c:f4:de:d3:20:
                    be:07:94:a6:c4:fe:a6:7f:89:68:0b:3e:c7:48:f9:
                    99:38:f6:9b:e6:84:87:b1:69:08:70:f9:aa:82:ff:
                    a6:0c:d6:a2:0a:f6:93:0f:2a:b0:73:2d:ca:8e:88:
                    96:66:0b
                Exponent: 65537 (0x10001)
        X509v3 extensions:
            X509v3 Key Usage: critical
                Certificate Sign, CRL Sign
            X509v3 Basic Constraints: critical
                CA:TRUE, pathlen:0
            X509v3 Subject Key Identifier: 
                06:BD:9B:12:28:9D:4C:3F:F6:97:A3:F3:B9:83:58:70:77:04:10:0B
            X509v3 Authority Key Identifier: 
                E8:9A:25:D6:31:41:C2:C7:43:10:47:DA:64:E7:69:4A:C3:F3:4B:27
            Authority Information Access: 
                CA Issuers - URI:https://elbosso.github.io/x509//Dama11_Intermediary_Test_CA-ca.crt
            X509v3 CRL Distribution Points: 
                Full Name:
                  URI:https://elbosso.github.io/x509//Dama11_Intermediary_Test_CA-ca.crl
    Signature Algorithm: sha512WithRSAEncryption
    Signature Value:
        4c:4d:e4:29:f1:28:41:2f:e0:ea:db:ea:7f:55:55:a3:e0:51:
        3f:51:a1:00:72:0e:de:40:a3:fb:92:df:33:94:97:65:51:e3:
        5f:25:d2:f2:fe:af:81:ae:9b:2d:62:f8:11:31:6b:fe:dc:4a:
        6e:46:0d:64:4a:55:55:3b:d9:26:5a:fc:73:c8:3c:4f:21:0c:
        03:4e:d7:85:61:04:e5:96:38:bb:39:8a:a6:f0:43:32:8b:40:
        c6:5a:38:29:c1:22:ea:ec:c0:4b:9e:eb:49:32:16:d4:1b:96:
        98:43:28:0a:42:f3:ed:09:fe:55:9f:3e:d8:8d:43:a5:80:79:
        71:0d:ed:3c:de:63:79:e8:8c:81:60:55:1f:ca:6f:77:cd:09:
        81:d7:12:6c:cd:e4:8b:d0:f3:d8:d6:0c:6d:83:b4:b0:c8:7f:
        2a:39:4f:5f:e2:66:f3:97:1d:2b:a4:0e:5b:25:f0:3b:4f:84:
        9d:48:f6:27:38:05:d6:15:51:a2:08:a5:b7:82:0c:64:12:35:
        90:fa:51:fc:78:30:f3:e0:86:60:4d:1e:c1:a6:aa:01:7b:ee:
        4c:4a:76:1b:3b:64:87:39:91:07:c1:1b:12:74:4c:b7:77:6c:
        8c:3b:6d:79:a9:b7:c2:4b:4c:b0:bd:4d:91:57:aa:2b:dd:f6:
        01:fd:dc:b4:fe:ed:51:df:89:08:69:6f:9d:0d:94:30:e3:1a:
        de:21:89:17:c9:31:78:14:7f:6f:44:a0:69:0c:6b:a4:17:a6:
        b4:0d:ff:40:93:78:b6:55:98:fe:ce:6a:1a:b2:67:e3:4d:77:
        54:92:b1:8a:e2:27:30:3e:c4:cb:e3:40:0e:c3:d3:fe:3b:7e:
        72:e1:48:e1:1a:8c:37:13:04:41:1d:0c:ee:ab:34:77:f8:fe:
        e5:6c:81:f7:63:62:f7:bc:3c:7c:14:31:ee:be:83:90:78:1a:
        ec:d2:b3:77:76:ee:6a:9d:88:d4:72:15:b9:37:fa:eb:3e:2a:
        82:8b:b7:d5:e7:58:2a:e3:a2:c9:c4:eb:64:fb:fe:74:7f:3f:
        a6:f3:74:77:88:ed:75:f4:f0:c0:38:11:5f:8c:98:5c:7e:1d:
        d4:86:3e:56:7f:0b:01:40:aa:d6:3b:c8:ff:16:3b:3f:a0:10:
        b0:a3:c0:2c:49:83:4b:a3:29:fe:08:44:14:73:1f:73:f9:32:
        5c:a9:d8:69:f7:66:d1:c8:f1:bc:9e:f4:5d:d6:b6:4b:4c:e6:
        e5:9e:56:1a:a8:85:7d:3d:b6:79:7b:cd:9e:37:b2:4f:f3:de:
        7f:a1:bd:60:6f:3d:05:fe:fc:ef:69:b9:40:05:c7:27:fd:82:
        e4:82:83:f6:90:8e:fa:0e
-----BEGIN CERTIFICATE-----
MIIGajCCBFKgAwIBAgIBCjANBgkqhkiG9w0BAQ0FADBqMQswCQYDVQQGEwJERTEZ
MBcGA1UECgwQRGFtYXNjaGtlc3RyLiAxMTEWMBQGA1UECwwNQXJiZWl0c3ppbW1l
cjEoMCYGA1UEAwwfRGFtYTExIExhYiBJbnRlcm1lZGlhcnkgVGVzdCBDQTAeFw0y
NTEwMDUwNzA0NTNaFw0zMDEwMDYyMzU5NTlaMGYxCzAJBgNVBAYTAkRFMRkwFwYD
VQQKDBBEYW1hc2Noa2VzdHIuIDExMRYwFAYDVQQLDA1BcmJlaXRzemltbWVyMSQw
IgYDVQQDDBtEYW1hMTEgTGFiIElkZW50aXR5IFRlc3QgQ0EwggIiMA0GCSqGSIb3
DQEBAQUAA4ICDwAwggIKAoICAQDXzlw4HFBo195tizCbDJFhjQdfpoG04Nr9G0i1
iujEX+B46aepgxw/7WShv3uc7Ni7CNhun3KFzuPDY+kNIrw3+eijllvp1RfcqxMH
AHMMRVXwv4D+We2Bq7VArrNceqpJEDqkaoNQhkvQdWWFnJRahQDVFoU6ybFdDo1h
UgVvNUQANFCcd3oEIH14dUFBZrsx+v7Ut9megwXPIj4Yw49ave4U+Tp4bwuCHZj6
5Zk1W/RNXcM/icDROY6ejS1iMkoJhYrQwq9ihvWXXqAx2kFQP/IgqTfKhwjnt5ZP
SO1xDsok2wlOO9FD7gKmTDH/Ez4YRkXyQTP26cS6w2ZeWnkhICwOvNpzmJIfFnhW
922i+kUsBjVnjFnx+1QIqvbd/xZdvjOM3NQRmzDzgYaFUoaGsd+ChHcRhbpMF9se
753lFFFssCaGtaBvHdDd9gKUJthj0/TIsTlRzstXGoWpcbzIWWNeeAPrzRkFsFvF
Pwiy++5RjtcrOr1iTOd5C5YEI+IsRC+a36ywuCrkW1qcYGtYy1G/vZtbQh/QYMcn
QgfkIzFaKOKptUP5WiRixBJVq2UmdKZwN5OWBfl00LOXopxH7YxOb5jZn+J8AfQc
9N7TIL4HlKbE/qZ/iWgLPsdI+Zk49pvmhIexaQhw+aqC/6YM1qIK9pMPKrBzLcqO
iJZmCwIDAQABo4IBHTCCARkwDgYDVR0PAQH/BAQDAgEGMBIGA1UdEwEB/wQIMAYB
Af8CAQAwHQYDVR0OBBYEFAa9mxIonUw/9pej87mDWHB3BBALMB8GA1UdIwQYMBaA
FOiaJdYxQcLHQxBH2mTnaUrD80snMF4GCCsGAQUFBwEBBFIwUDBOBggrBgEFBQcw
AoZCaHR0cHM6Ly9lbGJvc3NvLmdpdGh1Yi5pby94NTA5Ly9EYW1hMTFfSW50ZXJt
ZWRpYXJ5X1Rlc3RfQ0EtY2EuY3J0MFMGA1UdHwRMMEowSKBGoESGQmh0dHBzOi8v
ZWxib3Nzby5naXRodWIuaW8veDUwOS8vRGFtYTExX0ludGVybWVkaWFyeV9UZXN0
X0NBLWNhLmNybDANBgkqhkiG9w0BAQ0FAAOCAgEATE3kKfEoQS/g6tvqf1VVo+BR
P1GhAHIO3kCj+5LfM5SXZVHjXyXS8v6vga6bLWL4ETFr/txKbkYNZEpVVTvZJlr8
c8g8TyEMA07XhWEE5ZY4uzmKpvBDMotAxlo4KcEi6uzAS57rSTIW1BuWmEMoCkLz
7Qn+VZ8+2I1DpYB5cQ3tPN5jeeiMgWBVH8pvd80JgdcSbM3ki9Dz2NYMbYO0sMh/
KjlPX+Jm85cdK6QOWyXwO0+EnUj2JzgF1hVRogilt4IMZBI1kPpR/Hgw8+CGYE0e
waaqAXvuTEp2GztkhzmRB8EbEnRMt3dsjDtteam3wktMsL1NkVeqK932Af3ctP7t
Ud+JCGlvnQ2UMOMa3iGJF8kxeBR/b0SgaQxrpBemtA3/QJN4tlWY/s5qGrJn4013
VJKxiuInMD7Ey+NADsPT/jt+cuFI4RqMNxMEQR0M7qs0d/j+5WyB92Ni97w8fBQx
7r6DkHga7NKzd3buap2I1HIVuTf66z4qgou31edYKuOiycTrZPv+dH8/pvN0d4jt
dfTwwDgRX4yYXH4d1IY+Vn8LAUCq1jvI/xY7P6AQsKPALEmDS6Mp/ghEFHMfc/ky
XKnYafdm0cjxvJ70Xda2S0zm5Z5WGqiFfT22eXvNnjeyT/Pef6G9YG89Bf7872m5
QAXHJ/2C5IKD9pCO+g4=
-----END CERTIFICATE-----
