Certificate:
    Data:
        Version: 3 (0x2)
        Serial Number: 13 (0xd)
        Signature Algorithm: sha512WithRSAEncryption
        Issuer: C=DE, O=Damaschkestr. 11, OU=Arbeitszimmer, CN=Dama11 Lab Intermediary CA
        Validity
            Not Before: Oct  5 06:52:30 2025 GMT
            Not After : Oct  5 23:59:59 2028 GMT
        Subject: C=DE, O=Damaschkestr. 11, OU=Arbeitszimmer, CN=Dama11 Lab Identity CA
        Subject Public Key Info:
            Public Key Algorithm: rsaEncryption
                Public-Key: (4096 bit)
                Modulus:
                    00:e2:6f:68:7e:d1:f4:da:ae:d7:3b:1d:da:4e:60:
                    94:4e:b9:2d:d2:1a:ad:d8:4a:f4:af:97:b7:fe:a2:
                    6c:e3:2a:b2:af:65:47:32:e7:4b:98:ee:74:db:f3:
                    72:fd:c0:42:29:1f:af:8f:f5:7b:30:26:54:5f:2c:
                    44:8a:ed:fb:53:63:14:52:81:af:60:f2:31:9a:ab:
                    97:3f:bf:1b:c3:96:06:1e:59:93:0d:0f:8e:e1:de:
                    9c:93:2f:96:94:1a:15:05:a5:e2:7a:d5:f0:68:b1:
                    8f:9f:6c:f4:82:39:ff:72:97:19:df:14:6d:86:3f:
                    ea:4e:6a:7e:91:0a:c1:9c:4e:9b:33:76:8d:4f:c9:
                    6f:96:79:01:04:cf:9c:a6:39:6d:de:13:8c:1b:c7:
                    13:a5:71:bb:8a:f8:90:78:d3:40:c7:d2:d7:32:0d:
                    cd:99:d2:fe:71:53:1c:d2:40:6c:f3:35:bc:16:c6:
                    67:2d:c6:05:53:f3:95:e1:83:22:e3:89:7c:ee:74:
                    95:dc:a0:c4:18:b9:ad:6e:fc:72:c9:2f:28:7e:96:
                    78:87:cf:f8:3b:98:e7:f0:c5:da:9a:24:51:73:ff:
                    01:9c:a0:66:04:4d:9e:95:e5:fa:42:6e:8a:ed:27:
                    11:90:45:54:ef:61:2a:98:cb:d0:39:d5:fc:60:e5:
                    94:20:d5:4e:0e:b5:46:70:ae:af:e3:ac:3d:92:d3:
                    21:82:b1:7a:a5:ea:93:95:d6:36:ab:32:73:7a:b6:
                    ed:21:77:2d:e5:72:58:4c:df:9a:7a:30:c6:e8:8e:
                    c4:ab:b5:94:92:1f:e2:83:6d:19:be:a5:62:11:c9:
                    86:df:e2:b1:fe:76:1a:ac:7f:69:5d:a8:07:4e:5f:
                    93:c0:c8:01:22:8a:42:c3:41:2f:75:57:2e:e8:b3:
                    d9:d0:df:e4:72:8d:7a:70:49:c1:12:83:ff:58:0c:
                    33:89:63:b0:72:5e:4e:27:84:68:7e:59:5a:77:62:
                    45:a6:6e:b6:cb:44:40:0e:3b:eb:6d:73:e3:72:83:
                    50:ee:0d:e4:a8:51:d0:34:ad:35:14:9e:f7:db:51:
                    b2:2e:b8:cb:e1:52:52:54:dc:ec:2d:89:7d:64:3f:
                    63:43:a6:f7:68:27:64:ac:2c:5f:d8:46:0f:0d:10:
                    d7:f7:9c:90:91:14:84:c7:c1:45:9d:75:d4:98:81:
                    2b:66:03:1a:32:66:ba:c3:c8:63:21:79:fc:ac:7e:
                    d1:0d:d3:53:ef:1e:a2:7c:6b:ea:71:33:fb:61:c9:
                    f9:49:d8:e0:68:a5:75:ea:7a:bc:65:73:c6:7a:b9:
                    43:8b:93:ed:ee:25:df:d7:0e:ec:50:1e:b6:c2:f6:
                    0f:9e:5b
                Exponent: 65537 (0x10001)
        X509v3 extensions:
            X509v3 Key Usage: critical
                Certificate Sign, CRL Sign
            X509v3 Basic Constraints: critical
                CA:TRUE, pathlen:0
            X509v3 Subject Key Identifier: 
                BC:AE:E8:AA:6C:08:58:02:DB:8E:EE:4B:EC:99:A7:F6:9E:58:A5:07
            X509v3 Authority Key Identifier: 
                5F:17:9E:B3:3D:7C:34:C0:A1:9B:73:99:DA:3C:34:44:74:57:80:16
            Authority Information Access: 
                CA Issuers - URI:https://elbosso.github.io/x509//Dama11_Intermediary_CA-ca.crt
            X509v3 CRL Distribution Points: 
                Full Name:
                  URI:https://elbosso.github.io/x509//Dama11_Intermediary_CA-ca.crl
    Signature Algorithm: sha512WithRSAEncryption
    Signature Value:
        05:6c:e5:09:8b:d3:31:dd:6b:58:d5:3e:91:db:7f:5c:a9:fe:
        84:1b:ac:00:77:29:03:e7:ba:f2:8f:12:6a:8d:83:6b:3a:d0:
        71:63:80:a0:9f:8d:fa:de:ae:1d:3f:dd:4a:f5:de:1f:ae:d9:
        ef:06:0e:e0:3d:4c:56:91:bc:fc:33:6f:d3:8e:0a:8e:3b:ba:
        0a:70:e4:1a:63:ca:7f:4e:9d:79:a5:b5:fd:c0:a4:97:88:34:
        ac:da:ea:0b:ed:ad:41:25:6d:dc:2b:ad:43:d4:49:c6:58:14:
        bc:60:2e:74:8c:7f:fe:aa:26:87:de:e5:8b:c6:99:4b:ad:60:
        06:ef:79:a5:e0:3a:9b:93:00:2b:54:f3:b9:b5:89:bb:74:66:
        78:1c:c9:92:7c:fd:6e:41:97:bd:fb:2e:8b:53:e1:ac:e6:81:
        16:ba:9f:96:fe:7c:07:9b:41:c4:b7:c7:2f:8f:d9:a2:a5:03:
        e3:b3:dd:9f:78:97:e5:da:8b:0c:89:2f:24:aa:78:d3:b5:86:
        0b:d2:e4:4d:d3:f4:90:9d:99:0d:05:35:be:88:40:c5:fb:a3:
        eb:e5:dc:ec:4a:23:aa:bb:1b:15:13:d8:07:d5:4f:9a:f7:58:
        43:cb:02:e8:63:3e:96:c1:61:3e:2a:bd:a2:b3:dd:d0:04:65:
        a8:ce:60:07:32:95:6d:6d:96:63:31:6f:6c:69:46:fa:92:4e:
        c7:b5:72:57:f2:25:f8:2c:35:f1:7a:f6:05:9d:20:d0:0b:d2:
        68:17:96:5d:fd:23:72:40:2c:01:e6:f3:b9:58:26:27:f7:a0:
        69:fb:da:03:ce:bd:30:b5:21:bc:2a:c4:42:32:4b:04:1a:1c:
        9e:e3:e8:61:91:92:7c:2a:a0:9f:08:ee:07:37:45:b9:34:8e:
        0b:76:33:e5:da:df:70:c8:10:31:cd:32:84:94:91:0a:db:ab:
        fa:fd:b3:7c:46:4c:5f:6e:c3:47:6c:a5:2e:08:99:ac:ce:94:
        c3:08:be:d7:8e:24:ac:78:f0:bb:b0:d1:3a:52:00:2b:95:4f:
        32:01:a2:8a:97:43:d5:97:85:6b:e9:0e:c7:35:b2:19:9b:a1:
        86:9f:14:f9:5c:c6:21:95:32:59:c8:34:a2:3f:09:2a:25:b4:
        96:5c:77:03:9f:52:c5:b2:0b:cb:0d:98:ca:d8:0d:c2:71:c8:
        7d:9e:9c:ca:b6:7b:ed:a1:6e:ed:b5:fa:aa:1b:f4:d9:31:b3:
        84:18:c2:66:39:d4:f5:a6:11:4d:88:68:6a:e7:ec:81:21:a3:
        1d:e2:8f:83:ed:ce:7a:fd:81:7b:7e:60:16:71:39:72:46:dc:
        98:f3:9e:4e:7a:7d:28:eb
-----BEGIN CERTIFICATE-----
MIIGVjCCBD6gAwIBAgIBDTANBgkqhkiG9w0BAQ0FADBlMQswCQYDVQQGEwJERTEZ
MBcGA1UECgwQRGFtYXNjaGtlc3RyLiAxMTEWMBQGA1UECwwNQXJiZWl0c3ppbW1l
cjEjMCEGA1UEAwwaRGFtYTExIExhYiBJbnRlcm1lZGlhcnkgQ0EwHhcNMjUxMDA1
MDY1MjMwWhcNMjgxMDA1MjM1OTU5WjBhMQswCQYDVQQGEwJERTEZMBcGA1UECgwQ
RGFtYXNjaGtlc3RyLiAxMTEWMBQGA1UECwwNQXJiZWl0c3ppbW1lcjEfMB0GA1UE
AwwWRGFtYTExIExhYiBJZGVudGl0eSBDQTCCAiIwDQYJKoZIhvcNAQEBBQADggIP
ADCCAgoCggIBAOJvaH7R9Nqu1zsd2k5glE65LdIardhK9K+Xt/6ibOMqsq9lRzLn
S5judNvzcv3AQikfr4/1ezAmVF8sRIrt+1NjFFKBr2DyMZqrlz+/G8OWBh5Zkw0P
juHenJMvlpQaFQWl4nrV8Gixj59s9II5/3KXGd8UbYY/6k5qfpEKwZxOmzN2jU/J
b5Z5AQTPnKY5bd4TjBvHE6Vxu4r4kHjTQMfS1zINzZnS/nFTHNJAbPM1vBbGZy3G
BVPzleGDIuOJfO50ldygxBi5rW78cskvKH6WeIfP+DuY5/DF2pokUXP/AZygZgRN
npXl+kJuiu0nEZBFVO9hKpjL0DnV/GDllCDVTg61RnCur+OsPZLTIYKxeqXqk5XW
Nqsyc3q27SF3LeVyWEzfmnowxuiOxKu1lJIf4oNtGb6lYhHJht/isf52Gqx/aV2o
B05fk8DIASKKQsNBL3VXLuiz2dDf5HKNenBJwRKD/1gMM4ljsHJeTieEaH5ZWndi
RaZutstEQA47621z43KDUO4N5KhR0DStNRSe99tRsi64y+FSUlTc7C2JfWQ/Y0Om
92gnZKwsX9hGDw0Q1/eckJEUhMfBRZ111JiBK2YDGjJmusPIYyF5/Kx+0Q3TU+8e
onxr6nEz+2HJ+UnY4Gildep6vGVzxnq5Q4uT7e4l39cO7FAetsL2D55bAgMBAAGj
ggETMIIBDzAOBgNVHQ8BAf8EBAMCAQYwEgYDVR0TAQH/BAgwBgEB/wIBADAdBgNV
HQ4EFgQUvK7oqmwIWALbju5L7Jmn9p5YpQcwHwYDVR0jBBgwFoAUXxeesz18NMCh
m3OZ2jw0RHRXgBYwWQYIKwYBBQUHAQEETTBLMEkGCCsGAQUFBzAChj1odHRwczov
L2VsYm9zc28uZ2l0aHViLmlvL3g1MDkvL0RhbWExMV9JbnRlcm1lZGlhcnlfQ0Et
Y2EuY3J0ME4GA1UdHwRHMEUwQ6BBoD+GPWh0dHBzOi8vZWxib3Nzby5naXRodWIu
aW8veDUwOS8vRGFtYTExX0ludGVybWVkaWFyeV9DQS1jYS5jcmwwDQYJKoZIhvcN
AQENBQADggIBAAVs5QmL0zHda1jVPpHbf1yp/oQbrAB3KQPnuvKPEmqNg2s60HFj
gKCfjfrerh0/3Ur13h+u2e8GDuA9TFaRvPwzb9OOCo47ugpw5Bpjyn9OnXmltf3A
pJeINKza6gvtrUElbdwrrUPUScZYFLxgLnSMf/6qJofe5YvGmUutYAbveaXgOpuT
ACtU87m1ibt0ZngcyZJ8/W5Bl737LotT4azmgRa6n5b+fAebQcS3xy+P2aKlA+Oz
3Z94l+XaiwyJLySqeNO1hgvS5E3T9JCdmQ0FNb6IQMX7o+vl3OxKI6q7GxUT2AfV
T5r3WEPLAuhjPpbBYT4qvaKz3dAEZajOYAcylW1tlmMxb2xpRvqSTse1clfyJfgs
NfF69gWdINAL0mgXll39I3JALAHm87lYJif3oGn72gPOvTC1IbwqxEIySwQaHJ7j
6GGRknwqoJ8I7gc3Rbk0jgt2M+Xa33DIEDHNMoSUkQrbq/r9s3xGTF9uw0dspS4I
mazOlMMIvteOJKx48Luw0TpSACuVTzIBooqXQ9WXhWvpDsc1shmboYafFPlcxiGV
MlnINKI/CSoltJZcdwOfUsWyC8sNmMrYDcJxyH2enMq2e+2hbu21+qob9Nkxs4QY
wmY51PWmEU2IaGrn7IEhox3ij4Ptznr9gXt+YBZxOXJG3Jjznk56fSjr
-----END CERTIFICATE-----
