Certificate:
    Data:
        Version: 3 (0x2)
        Serial Number: 2 (0x2)
        Signature Algorithm: sha512WithRSAEncryption
        Issuer: C=DE, O=Damaschkestr. 11, OU=Arbeitszimmer, CN=Dama11 Lab Root CA
        Validity
            Not Before: Oct 13 15:13:09 2019 GMT
            Not After : Dec 31 23:59:59 2025 GMT
        Subject: C=DE, O=Damaschkestr. 11, OU=Arbeitszimmer, CN=Dama11 Lab Intermediary CA
        Subject Public Key Info:
            Public Key Algorithm: rsaEncryption
                RSA Public-Key: (4096 bit)
                Modulus:
                    00:a2:4d:08:f0:15:50:96:6f:9b:c8:b2:b7:3f:3f:
                    37:d4:42:33:70:bb:7e:3c:02:be:79:c1:96:b0:a6:
                    67:37:ae:9d:98:26:46:96:13:e7:bf:21:1f:ce:eb:
                    62:21:d8:7b:60:88:4d:be:61:d9:d4:92:9e:9b:8f:
                    28:ce:52:3f:5e:37:41:fd:26:a9:a0:f2:22:5f:95:
                    af:00:78:51:b1:8d:e5:b7:af:63:2d:0f:06:af:36:
                    ed:f5:76:0c:b3:a4:f1:20:7b:37:52:84:b9:93:ba:
                    0c:14:b6:ad:a4:22:5a:fb:b4:ac:25:3d:a5:ad:d4:
                    e9:63:b3:a9:43:32:3b:2e:b7:9e:85:45:77:69:1f:
                    fd:01:8b:46:07:68:5f:83:c2:7a:88:e4:19:32:56:
                    3b:eb:56:65:8a:f6:71:f2:c8:58:9c:6f:d8:2e:f5:
                    bf:0a:f6:55:e6:5d:25:bf:61:6e:93:29:c4:43:7d:
                    97:09:3f:01:93:e0:49:9c:1d:fd:4b:15:79:58:eb:
                    a6:cc:3b:c3:61:b5:da:3a:21:38:3d:18:db:18:a9:
                    14:52:c1:a9:6f:59:b3:e4:97:fa:d6:de:de:1a:80:
                    f6:7a:1b:af:0e:48:f5:bb:54:b9:e5:93:55:33:18:
                    50:7e:2a:1b:d0:b1:13:2d:ad:e4:02:40:53:04:b4:
                    a9:37:69:4d:da:35:c6:54:e0:46:c8:db:c6:17:a6:
                    87:78:88:54:e9:ed:ef:04:c8:35:40:d5:04:3c:51:
                    cc:9c:ef:de:3a:d0:3b:b6:d6:6a:83:86:e6:28:af:
                    e0:e4:b0:db:68:54:1b:3a:b7:24:b7:56:a9:ad:80:
                    18:3a:ae:8d:4b:b1:a8:01:b7:df:b8:2f:48:e2:c3:
                    f6:60:69:90:eb:08:69:bd:6e:5b:7b:6d:5b:77:0f:
                    a7:51:40:e9:c7:39:47:ec:54:73:f5:78:ab:9e:43:
                    5d:15:9d:9c:9d:1b:07:94:5a:d1:ad:b1:5e:02:b0:
                    87:02:c8:93:02:b8:2e:07:31:75:ae:07:60:a8:25:
                    02:bd:fe:8c:42:4d:fc:d2:a4:f6:bf:c1:38:63:c2:
                    71:34:0d:bc:21:3c:c6:a7:4a:dc:36:56:f0:54:97:
                    a7:f8:8b:a0:b5:84:e9:61:0d:1c:aa:b9:a3:51:2f:
                    43:f2:7a:2e:09:25:f7:59:26:8a:92:32:df:46:f2:
                    69:ce:33:c5:b9:43:ad:0b:93:ff:d4:17:f5:04:90:
                    53:06:5d:91:12:76:18:0f:b3:9b:62:57:43:6b:ce:
                    58:a9:2a:73:13:5a:b8:10:6f:30:c2:da:83:b6:2b:
                    d2:3f:a3:59:65:60:fd:6e:bd:32:15:0e:2e:49:64:
                    da:8f:6d
                Exponent: 65537 (0x10001)
        X509v3 extensions:
            X509v3 Key Usage: critical
                Certificate Sign, CRL Sign
            X509v3 Basic Constraints: critical
                CA:TRUE
            X509v3 Subject Key Identifier: 
                5F:17:9E:B3:3D:7C:34:C0:A1:9B:73:99:DA:3C:34:44:74:57:80:16
            X509v3 Authority Key Identifier: 
                keyid:01:B2:2D:56:3C:87:7F:A8:5F:61:BC:58:01:BF:1E:FD:4A:CA:CA:8D

            Authority Information Access: 
                CA Issuers - URI:https://elbosso.github.io/x509//Dama11_Root_CA-ca.crt

            X509v3 CRL Distribution Points: 

                Full Name:
                  URI:https://elbosso.github.io/x509//Dama11_Root_CA-ca.crl

    Signature Algorithm: sha512WithRSAEncryption
         06:18:fc:7d:af:3a:12:f3:10:56:ea:d4:60:16:3a:1c:b2:19:
         37:df:84:ba:c8:3c:cd:e7:56:56:b0:a8:12:17:65:48:2f:0a:
         3f:36:5b:c6:25:84:5f:13:78:8d:eb:1b:2c:56:52:15:09:1d:
         ff:34:d5:36:e7:b8:ae:71:ee:b6:04:32:77:f9:52:3c:15:3d:
         c2:a0:c3:f7:13:41:60:fa:1e:2f:8a:2f:ab:32:e3:45:c5:a7:
         59:f4:1f:7a:e7:78:36:c8:ce:41:fe:fb:71:d7:0d:0e:25:09:
         70:62:9e:57:48:10:a0:4a:25:08:7c:55:c2:a2:5d:20:af:a7:
         ea:8f:f8:af:22:8e:17:e6:50:0c:2f:d8:f1:6a:d8:ec:4a:8c:
         56:99:9b:d1:b1:7b:eb:dd:15:fc:21:06:54:78:ce:08:b8:b3:
         30:cd:13:74:e8:01:65:73:1e:0f:37:b1:49:64:06:a3:c4:45:
         b4:fa:ab:a9:59:45:45:56:94:fb:09:92:b9:3a:e8:d5:ed:b5:
         86:48:9f:23:9d:a7:5e:29:53:ea:3e:01:3d:cc:e9:fa:54:17:
         d7:2f:86:f8:c3:4d:8b:60:d0:a6:8b:1b:4d:35:14:0d:71:99:
         dd:40:67:4f:0a:6c:40:e4:f7:3d:3d:40:5a:6a:53:ea:c9:9b:
         06:9f:b9:42:54:3a:61:b1:db:3e:52:cb:58:3f:2b:ec:9b:66:
         32:4f:72:4a:59:d8:2a:5c:fb:25:5b:63:b0:33:5b:0d:05:35:
         23:1b:e7:3a:af:1f:8e:a9:9a:b8:87:01:d0:46:f9:ca:b0:ed:
         c0:7a:7c:52:d5:03:5d:e0:cb:9d:6e:f6:f6:57:c3:34:9f:50:
         c1:4b:ce:b2:a5:da:95:a6:5e:3d:96:09:ba:6e:ac:64:5f:eb:
         a1:5f:e1:4d:94:6a:28:13:30:22:90:f1:a2:d5:45:b5:08:43:
         89:03:c3:8d:1e:60:9e:ea:e7:d5:6a:a9:b9:c8:ff:31:2a:e5:
         a6:6e:b2:6a:41:f6:d6:70:73:aa:4a:8d:53:74:72:8c:be:a5:
         6a:b9:77:3c:0e:53:13:d9:8b:a6:2b:75:cd:c2:5d:39:16:be:
         f1:ec:96:80:54:44:18:03:d7:5c:ff:2f:81:49:6e:f8:8a:54:
         97:32:a0:82:6b:32:52:8a:25:37:71:5e:ad:97:ac:d1:d8:34:
         18:01:86:b0:ee:5b:68:d9:6e:2d:ea:3a:a9:d4:2d:bd:0d:2b:
         bb:52:74:8e:fd:15:aa:18:63:ff:5e:66:94:23:8f:a6:05:76:
         fc:ad:64:25:18:93:4f:79:9b:ab:ff:a5:93:ac:e2:bb:67:d9:
         7b:a9:3f:70:24:ac:92:bf
-----BEGIN CERTIFICATE-----
MIIGPTCCBCWgAwIBAgIBAjANBgkqhkiG9w0BAQ0FADBdMQswCQYDVQQGEwJERTEZ
MBcGA1UECgwQRGFtYXNjaGtlc3RyLiAxMTEWMBQGA1UECwwNQXJiZWl0c3ppbW1l
cjEbMBkGA1UEAwwSRGFtYTExIExhYiBSb290IENBMB4XDTE5MTAxMzE1MTMwOVoX
DTI1MTIzMTIzNTk1OVowZTELMAkGA1UEBhMCREUxGTAXBgNVBAoMEERhbWFzY2hr
ZXN0ci4gMTExFjAUBgNVBAsMDUFyYmVpdHN6aW1tZXIxIzAhBgNVBAMMGkRhbWEx
MSBMYWIgSW50ZXJtZWRpYXJ5IENBMIICIjANBgkqhkiG9w0BAQEFAAOCAg8AMIIC
CgKCAgEAok0I8BVQlm+byLK3Pz831EIzcLt+PAK+ecGWsKZnN66dmCZGlhPnvyEf
zutiIdh7YIhNvmHZ1JKem48ozlI/XjdB/SapoPIiX5WvAHhRsY3lt69jLQ8Grzbt
9XYMs6TxIHs3UoS5k7oMFLatpCJa+7SsJT2lrdTpY7OpQzI7LreehUV3aR/9AYtG
B2hfg8J6iOQZMlY761ZlivZx8shYnG/YLvW/CvZV5l0lv2FukynEQ32XCT8Bk+BJ
nB39SxV5WOumzDvDYbXaOiE4PRjbGKkUUsGpb1mz5Jf61t7eGoD2ehuvDkj1u1S5
5ZNVMxhQfiob0LETLa3kAkBTBLSpN2lN2jXGVOBGyNvGF6aHeIhU6e3vBMg1QNUE
PFHMnO/eOtA7ttZqg4bmKK/g5LDbaFQbOrckt1aprYAYOq6NS7GoAbffuC9I4sP2
YGmQ6whpvW5be21bdw+nUUDpxzlH7FRz9XirnkNdFZ2cnRsHlFrRrbFeArCHAsiT
ArguBzF1rgdgqCUCvf6MQk380qT2v8E4Y8JxNA28ITzGp0rcNlbwVJen+IugtYTp
YQ0cqrmjUS9D8nouCSX3WSaKkjLfRvJpzjPFuUOtC5P/1Bf1BJBTBl2REnYYD7Ob
YldDa85YqSpzE1q4EG8wwtqDtivSP6NZZWD9br0yFQ4uSWTaj20CAwEAAaOB/zCB
/DAOBgNVHQ8BAf8EBAMCAQYwDwYDVR0TAQH/BAUwAwEB/zAdBgNVHQ4EFgQUXxee
sz18NMChm3OZ2jw0RHRXgBYwHwYDVR0jBBgwFoAUAbItVjyHf6hfYbxYAb8e/UrK
yo0wUQYIKwYBBQUHAQEERTBDMEEGCCsGAQUFBzAChjVodHRwczovL2VsYm9zc28u
Z2l0aHViLmlvL3g1MDkvL0RhbWExMV9Sb290X0NBLWNhLmNydDBGBgNVHR8EPzA9
MDugOaA3hjVodHRwczovL2VsYm9zc28uZ2l0aHViLmlvL3g1MDkvL0RhbWExMV9S
b290X0NBLWNhLmNybDANBgkqhkiG9w0BAQ0FAAOCAgEABhj8fa86EvMQVurUYBY6
HLIZN9+Eusg8zedWVrCoEhdlSC8KPzZbxiWEXxN4jesbLFZSFQkd/zTVNue4rnHu
tgQyd/lSPBU9wqDD9xNBYPoeL4ovqzLjRcWnWfQfeud4NsjOQf77cdcNDiUJcGKe
V0gQoEolCHxVwqJdIK+n6o/4ryKOF+ZQDC/Y8WrY7EqMVpmb0bF7690V/CEGVHjO
CLizMM0TdOgBZXMeDzexSWQGo8RFtPqrqVlFRVaU+wmSuTro1e21hkifI52nXilT
6j4BPczp+lQX1y+G+MNNi2DQposbTTUUDXGZ3UBnTwpsQOT3PT1AWmpT6smbBp+5
QlQ6YbHbPlLLWD8r7JtmMk9ySlnYKlz7JVtjsDNbDQU1IxvnOq8fjqmauIcB0Eb5
yrDtwHp8UtUDXeDLnW729lfDNJ9QwUvOsqXalaZePZYJum6sZF/roV/hTZRqKBMw
IpDxotVFtQhDiQPDjR5gnurn1Wqpucj/MSrlpm6yakH21nBzqkqNU3RyjL6larl3
PA5TE9mLpit1zcJdORa+8eyWgFREGAPXXP8vgUlu+IpUlzKggmsyUoolN3FerZes
0dg0GAGGsO5baNluLeo6qdQtvQ0ru1J0jv0Vqhhj/15mlCOPpgV2/K1kJRiTT3mb
q/+lk6ziu2fZe6k/cCSskr8=
-----END CERTIFICATE-----
