Certificate:
    Data:
        Version: 3 (0x2)
        Serial Number: 1 (0x1)
        Signature Algorithm: sha512WithRSAEncryption
        Issuer: C=DE, O=Damaschkestr. 11, OU=Arbeitszimmer, CN=Dama11 Lab Intermediary CA
        Validity
            Not Before: Oct 13 15:26:40 2019 GMT
            Not After : Dec 31 23:59:59 2023 GMT
        Subject: C=DE, O=Damaschkestr. 11, OU=Arbeitszimmer, CN=Dama11 Lab Component CA
        Subject Public Key Info:
            Public Key Algorithm: rsaEncryption
                RSA Public-Key: (4096 bit)
                Modulus:
                    00:d1:3a:a1:e3:1e:fc:2d:6e:6c:cf:a6:44:5c:4c:
                    5e:85:4b:1f:84:06:23:c9:39:33:56:8d:30:29:12:
                    77:a1:cc:cb:ef:be:8c:82:2b:7e:bf:29:57:ef:f9:
                    f6:66:33:c1:c7:be:1e:40:c0:95:61:42:7f:d7:a6:
                    cf:bf:59:03:25:1d:d6:9c:be:34:0e:b5:20:12:d0:
                    bd:7f:24:ef:cd:dc:f6:86:91:1b:4a:55:7b:d1:1a:
                    58:93:72:37:57:21:bb:cb:14:90:04:95:f2:82:59:
                    40:0e:0e:f1:db:a9:f1:16:54:90:e1:b0:2b:41:62:
                    81:b7:16:cd:4d:5b:ca:f4:65:59:d2:96:00:1a:cd:
                    08:e7:43:42:91:83:15:c6:8c:8d:47:f0:6c:75:3b:
                    c0:ca:83:98:2c:9c:29:1c:16:9f:67:ed:95:6c:7c:
                    a5:60:fc:31:c3:98:90:8f:09:dd:ba:82:5a:bc:d6:
                    04:85:4b:71:c5:47:45:ae:fb:09:61:f6:7c:e3:fd:
                    75:06:c9:e4:b4:ed:92:7d:73:a0:ed:49:ce:1b:c3:
                    07:b4:d1:6f:ac:5d:d9:7c:ba:c8:ca:ea:36:df:1c:
                    c7:d2:90:87:cc:3a:b5:8e:58:5e:d3:34:bb:5f:3d:
                    5b:3a:2c:aa:47:d1:6b:cd:0a:14:54:a0:28:09:0f:
                    27:91:14:f0:3c:40:0e:04:81:b9:a2:24:fa:a0:c4:
                    4b:94:b8:e1:e8:5b:44:f4:14:76:90:84:31:e7:08:
                    9c:c9:d1:87:11:ae:d2:b0:70:db:21:39:16:31:3d:
                    9a:b0:52:a7:84:38:96:8b:99:c6:c4:63:6f:1a:52:
                    62:30:0a:e5:33:41:f0:c8:18:89:5a:be:e8:96:e1:
                    4a:78:15:c9:08:c0:65:c7:20:f7:82:77:8e:20:82:
                    f2:83:61:6a:d6:1b:4f:d6:05:c1:66:11:db:89:ad:
                    e2:51:e0:82:fc:52:1a:6c:3c:34:e2:e6:95:f2:ea:
                    e1:9f:1c:19:09:09:b5:02:a1:9a:f7:b5:74:98:6e:
                    02:77:8e:ee:2e:f0:5e:2d:67:32:64:b4:64:d0:ab:
                    08:8d:9b:cf:5a:5b:b5:82:d3:9d:d1:cf:06:f9:92:
                    ec:3f:9d:23:60:0f:64:75:df:9e:b4:9f:b6:5d:8b:
                    4d:5d:56:69:27:7a:00:39:e3:f7:ba:e2:08:fe:28:
                    83:af:50:3c:1d:09:95:13:10:e7:2c:80:34:66:5b:
                    13:ca:eb:9f:7e:92:f0:b7:09:19:d4:b5:11:e3:ca:
                    d8:0f:03:9e:9d:c2:2c:be:24:08:d3:d4:e7:79:9d:
                    1b:98:28:7f:51:1f:83:2d:d2:ba:00:b3:64:92:b7:
                    39:7d:8f
                Exponent: 65537 (0x10001)
        X509v3 extensions:
            X509v3 Key Usage: critical
                Certificate Sign, CRL Sign
            X509v3 Basic Constraints: critical
                CA:TRUE, pathlen:0
            X509v3 Subject Key Identifier: 
                FA:A4:50:A8:71:DB:4D:AF:4E:AD:3C:77:EE:4C:0F:D3:FC:00:D2:59
            X509v3 Authority Key Identifier: 
                keyid:5F:17:9E:B3:3D:7C:34:C0:A1:9B:73:99:DA:3C:34:44:74:57:80:16

            Authority Information Access: 
                CA Issuers - URI:https://elbosso.github.io/x509//Dama11_Intermediary_CA-ca.crt

            X509v3 CRL Distribution Points: 

                Full Name:
                  URI:https://elbosso.github.io/x509//Dama11_Intermediary_CA-ca.crl

    Signature Algorithm: sha512WithRSAEncryption
         6e:3c:3d:36:26:dc:07:28:d3:0d:5d:b9:f2:29:63:44:d4:ce:
         05:8f:97:7d:55:94:64:30:68:f1:a7:f6:ae:ee:73:1e:3a:f8:
         b4:0a:6b:a3:f8:14:b6:e0:9c:de:04:ce:ef:86:e2:e5:08:8e:
         79:4a:d7:a9:84:ea:ad:68:75:3f:67:61:d7:ec:26:16:91:be:
         95:7d:d4:b5:e7:c6:7c:f0:83:a4:9b:4d:f4:01:05:72:87:38:
         dd:05:1d:13:33:99:b4:bf:9c:86:4e:55:14:12:aa:4b:96:c9:
         bd:f4:77:06:d3:50:a5:09:e5:f6:7e:cb:54:6b:8f:25:2d:00:
         6f:19:b9:75:49:bb:8a:0e:65:09:c1:18:a4:91:84:7a:0a:24:
         d8:13:68:df:fa:b8:60:21:d0:6d:88:50:ac:e0:3d:bf:31:f7:
         7f:64:ad:7a:3c:4a:2c:b3:f6:42:cb:2a:f8:2f:b1:ed:10:bc:
         6c:0c:15:fe:64:04:fb:2d:7b:05:c9:05:bd:a1:42:70:1f:2d:
         24:57:a9:47:6d:09:85:de:14:cf:d2:22:c6:98:c7:b8:4f:46:
         40:d2:12:6c:b0:47:58:ac:5e:1f:ed:14:99:de:a8:93:91:b8:
         f6:4c:36:b5:30:9d:12:81:89:55:e0:6d:3e:f6:4a:55:8a:c8:
         d4:96:b4:31:f2:57:fb:9d:0e:d5:3d:15:cb:a3:f0:da:1a:99:
         2d:a3:c1:cc:b8:17:3b:53:9b:94:7e:2f:d9:37:fe:22:18:b0:
         9a:30:a4:b5:0f:d6:a8:f8:b8:91:07:44:a8:dd:c3:17:6e:69:
         82:77:0a:af:a8:84:37:d9:df:3c:eb:b4:91:48:7e:e7:aa:9d:
         81:3e:03:23:62:db:9e:e4:78:f5:f8:53:da:9e:bc:71:b7:57:
         da:91:c4:09:c2:d0:21:6e:81:27:9b:86:75:a0:8b:63:ef:41:
         4a:ab:0e:19:20:d2:2b:eb:6e:8a:f4:c3:ff:74:ee:6c:4a:32:
         61:91:06:08:36:c5:50:1e:09:7f:9a:04:22:a5:db:d9:8e:5b:
         dc:61:b8:73:7b:a1:2f:35:7f:fa:a2:a4:64:02:d5:8a:22:1f:
         9c:67:65:69:9f:89:b9:11:85:52:f1:ab:c4:8c:21:83:f5:9a:
         4f:6b:8c:b8:0c:ec:69:70:3e:3e:73:c2:2b:12:cd:ac:49:9d:
         9e:8c:77:6e:d0:34:7b:47:d8:3e:72:72:21:d0:93:4d:7b:cc:
         7a:65:c6:ad:7c:5e:8b:6b:81:2b:ef:f6:47:1a:91:03:db:2d:
         3a:27:b6:8b:dc:26:49:9c:44:f9:41:f5:26:1b:cd:0c:a5:d4:
         f1:32:c5:03:2a:ad:2d:db
-----BEGIN CERTIFICATE-----
MIIGVzCCBD+gAwIBAgIBATANBgkqhkiG9w0BAQ0FADBlMQswCQYDVQQGEwJERTEZ
MBcGA1UECgwQRGFtYXNjaGtlc3RyLiAxMTEWMBQGA1UECwwNQXJiZWl0c3ppbW1l
cjEjMCEGA1UEAwwaRGFtYTExIExhYiBJbnRlcm1lZGlhcnkgQ0EwHhcNMTkxMDEz
MTUyNjQwWhcNMjMxMjMxMjM1OTU5WjBiMQswCQYDVQQGEwJERTEZMBcGA1UECgwQ
RGFtYXNjaGtlc3RyLiAxMTEWMBQGA1UECwwNQXJiZWl0c3ppbW1lcjEgMB4GA1UE
AwwXRGFtYTExIExhYiBDb21wb25lbnQgQ0EwggIiMA0GCSqGSIb3DQEBAQUAA4IC
DwAwggIKAoICAQDROqHjHvwtbmzPpkRcTF6FSx+EBiPJOTNWjTApEnehzMvvvoyC
K36/KVfv+fZmM8HHvh5AwJVhQn/Xps+/WQMlHdacvjQOtSAS0L1/JO/N3PaGkRtK
VXvRGliTcjdXIbvLFJAElfKCWUAODvHbqfEWVJDhsCtBYoG3Fs1NW8r0ZVnSlgAa
zQjnQ0KRgxXGjI1H8Gx1O8DKg5gsnCkcFp9n7ZVsfKVg/DHDmJCPCd26glq81gSF
S3HFR0Wu+wlh9nzj/XUGyeS07ZJ9c6DtSc4bwwe00W+sXdl8usjK6jbfHMfSkIfM
OrWOWF7TNLtfPVs6LKpH0WvNChRUoCgJDyeRFPA8QA4EgbmiJPqgxEuUuOHoW0T0
FHaQhDHnCJzJ0YcRrtKwcNshORYxPZqwUqeEOJaLmcbEY28aUmIwCuUzQfDIGIla
vuiW4Up4FckIwGXHIPeCd44ggvKDYWrWG0/WBcFmEduJreJR4IL8UhpsPDTi5pXy
6uGfHBkJCbUCoZr3tXSYbgJ3ju4u8F4tZzJktGTQqwiNm89aW7WC053Rzwb5kuw/
nSNgD2R13560n7Zdi01dVmknegA54/e64gj+KIOvUDwdCZUTEOcsgDRmWxPK659+
kvC3CRnUtRHjytgPA56dwiy+JAjT1Od5nRuYKH9RH4Mt0roAs2SStzl9jwIDAQAB
o4IBEzCCAQ8wDgYDVR0PAQH/BAQDAgEGMBIGA1UdEwEB/wQIMAYBAf8CAQAwHQYD
VR0OBBYEFPqkUKhx202vTq08d+5MD9P8ANJZMB8GA1UdIwQYMBaAFF8XnrM9fDTA
oZtzmdo8NER0V4AWMFkGCCsGAQUFBwEBBE0wSzBJBggrBgEFBQcwAoY9aHR0cHM6
Ly9lbGJvc3NvLmdpdGh1Yi5pby94NTA5Ly9EYW1hMTFfSW50ZXJtZWRpYXJ5X0NB
LWNhLmNydDBOBgNVHR8ERzBFMEOgQaA/hj1odHRwczovL2VsYm9zc28uZ2l0aHVi
LmlvL3g1MDkvL0RhbWExMV9JbnRlcm1lZGlhcnlfQ0EtY2EuY3JsMA0GCSqGSIb3
DQEBDQUAA4ICAQBuPD02JtwHKNMNXbnyKWNE1M4Fj5d9VZRkMGjxp/au7nMeOvi0
Cmuj+BS24JzeBM7vhuLlCI55StephOqtaHU/Z2HX7CYWkb6VfdS158Z88IOkm030
AQVyhzjdBR0TM5m0v5yGTlUUEqpLlsm99HcG01ClCeX2fstUa48lLQBvGbl1SbuK
DmUJwRikkYR6CiTYE2jf+rhgIdBtiFCs4D2/Mfd/ZK16PEoss/ZCyyr4L7HtELxs
DBX+ZAT7LXsFyQW9oUJwHy0kV6lHbQmF3hTP0iLGmMe4T0ZA0hJssEdYrF4f7RSZ
3qiTkbj2TDa1MJ0SgYlV4G0+9kpVisjUlrQx8lf7nQ7VPRXLo/DaGpkto8HMuBc7
U5uUfi/ZN/4iGLCaMKS1D9ao+LiRB0So3cMXbmmCdwqvqIQ32d8867SRSH7nqp2B
PgMjYtue5Hj1+FPanrxxt1fakcQJwtAhboEnm4Z1oItj70FKqw4ZINIr626K9MP/
dO5sSjJhkQYINsVQHgl/mgQipdvZjlvcYbhze6EvNX/6oqRkAtWKIh+cZ2Vpn4m5
EYVS8avEjCGD9ZpPa4y4DOxpcD4+c8IrEs2sSZ2ejHdu0DR7R9g+cnIh0JNNe8x6
ZcatfF6La4Er7/ZHGpED2y06J7aL3CZJnET5QfUmG80MpdTxMsUDKq0t2w==
-----END CERTIFICATE-----
