Certificate:
    Data:
        Version: 3 (0x2)
        Serial Number: 2 (0x2)
        Signature Algorithm: sha512WithRSAEncryption
        Issuer: C=DE, O=Damaschkestr. 11, OU=Arbeitszimmer, CN=Dama11 Lab Intermediary CA
        Validity
            Not Before: Oct 13 15:27:12 2019 GMT
            Not After : Dec 31 23:59:59 2023 GMT
        Subject: C=DE, O=Damaschkestr. 11, OU=Arbeitszimmer, CN=Dama11 Lab Identity CA
        Subject Public Key Info:
            Public Key Algorithm: rsaEncryption
                RSA Public-Key: (4096 bit)
                Modulus:
                    00:e2:6f:68:7e:d1:f4:da:ae:d7:3b:1d:da:4e:60:
                    94:4e:b9:2d:d2:1a:ad:d8:4a:f4:af:97:b7:fe:a2:
                    6c:e3:2a:b2:af:65:47:32:e7:4b:98:ee:74:db:f3:
                    72:fd:c0:42:29:1f:af:8f:f5:7b:30:26:54:5f:2c:
                    44:8a:ed:fb:53:63:14:52:81:af:60:f2:31:9a:ab:
                    97:3f:bf:1b:c3:96:06:1e:59:93:0d:0f:8e:e1:de:
                    9c:93:2f:96:94:1a:15:05:a5:e2:7a:d5:f0:68:b1:
                    8f:9f:6c:f4:82:39:ff:72:97:19:df:14:6d:86:3f:
                    ea:4e:6a:7e:91:0a:c1:9c:4e:9b:33:76:8d:4f:c9:
                    6f:96:79:01:04:cf:9c:a6:39:6d:de:13:8c:1b:c7:
                    13:a5:71:bb:8a:f8:90:78:d3:40:c7:d2:d7:32:0d:
                    cd:99:d2:fe:71:53:1c:d2:40:6c:f3:35:bc:16:c6:
                    67:2d:c6:05:53:f3:95:e1:83:22:e3:89:7c:ee:74:
                    95:dc:a0:c4:18:b9:ad:6e:fc:72:c9:2f:28:7e:96:
                    78:87:cf:f8:3b:98:e7:f0:c5:da:9a:24:51:73:ff:
                    01:9c:a0:66:04:4d:9e:95:e5:fa:42:6e:8a:ed:27:
                    11:90:45:54:ef:61:2a:98:cb:d0:39:d5:fc:60:e5:
                    94:20:d5:4e:0e:b5:46:70:ae:af:e3:ac:3d:92:d3:
                    21:82:b1:7a:a5:ea:93:95:d6:36:ab:32:73:7a:b6:
                    ed:21:77:2d:e5:72:58:4c:df:9a:7a:30:c6:e8:8e:
                    c4:ab:b5:94:92:1f:e2:83:6d:19:be:a5:62:11:c9:
                    86:df:e2:b1:fe:76:1a:ac:7f:69:5d:a8:07:4e:5f:
                    93:c0:c8:01:22:8a:42:c3:41:2f:75:57:2e:e8:b3:
                    d9:d0:df:e4:72:8d:7a:70:49:c1:12:83:ff:58:0c:
                    33:89:63:b0:72:5e:4e:27:84:68:7e:59:5a:77:62:
                    45:a6:6e:b6:cb:44:40:0e:3b:eb:6d:73:e3:72:83:
                    50:ee:0d:e4:a8:51:d0:34:ad:35:14:9e:f7:db:51:
                    b2:2e:b8:cb:e1:52:52:54:dc:ec:2d:89:7d:64:3f:
                    63:43:a6:f7:68:27:64:ac:2c:5f:d8:46:0f:0d:10:
                    d7:f7:9c:90:91:14:84:c7:c1:45:9d:75:d4:98:81:
                    2b:66:03:1a:32:66:ba:c3:c8:63:21:79:fc:ac:7e:
                    d1:0d:d3:53:ef:1e:a2:7c:6b:ea:71:33:fb:61:c9:
                    f9:49:d8:e0:68:a5:75:ea:7a:bc:65:73:c6:7a:b9:
                    43:8b:93:ed:ee:25:df:d7:0e:ec:50:1e:b6:c2:f6:
                    0f:9e:5b
                Exponent: 65537 (0x10001)
        X509v3 extensions:
            X509v3 Key Usage: critical
                Certificate Sign, CRL Sign
            X509v3 Basic Constraints: critical
                CA:TRUE, pathlen:0
            X509v3 Subject Key Identifier: 
                BC:AE:E8:AA:6C:08:58:02:DB:8E:EE:4B:EC:99:A7:F6:9E:58:A5:07
            X509v3 Authority Key Identifier: 
                keyid:5F:17:9E:B3:3D:7C:34:C0:A1:9B:73:99:DA:3C:34:44:74:57:80:16

            Authority Information Access: 
                CA Issuers - URI:https://elbosso.github.io/x509//Dama11_Intermediary_CA-ca.crt

            X509v3 CRL Distribution Points: 

                Full Name:
                  URI:https://elbosso.github.io/x509//Dama11_Intermediary_CA-ca.crl

    Signature Algorithm: sha512WithRSAEncryption
         1b:81:7a:94:69:66:2e:e9:68:d8:f0:b8:f0:5f:1f:88:e3:53:
         32:d9:7d:89:85:e2:b6:44:fe:1f:dd:0d:02:eb:ae:e4:5b:25:
         38:8b:1d:fc:19:63:74:19:ab:d0:48:11:43:fa:b5:2d:5b:11:
         e8:74:25:51:3e:83:1f:0f:c5:c5:54:04:04:79:52:f8:bb:c2:
         ce:f9:48:52:82:c4:93:c3:b8:38:c2:34:77:17:dd:e4:44:09:
         d3:f9:7a:70:cd:3b:ab:bc:3b:00:95:a5:6d:cb:71:4f:03:aa:
         b4:8c:96:0c:cb:0c:c8:b2:95:ac:b6:ed:c6:f8:f8:e3:cb:8e:
         c2:17:40:d1:c7:82:5c:a7:f9:d8:7e:02:f9:50:bf:a5:74:8e:
         c3:ed:dd:46:23:b3:c9:7c:67:f4:26:40:aa:31:6f:6e:9c:2e:
         79:70:89:0f:83:76:02:f7:a5:12:ce:c9:3e:3e:c1:a1:75:ab:
         b7:df:75:4b:c8:82:be:93:54:c1:6e:eb:9e:a3:8e:ac:64:fa:
         77:f4:30:7d:7e:80:05:d5:90:35:d2:a3:6c:01:c2:9e:15:52:
         62:a6:be:29:99:5e:72:fd:0c:e1:ba:1c:5c:9c:f6:a1:c0:0f:
         70:7a:64:a0:6c:45:c7:ac:af:d6:30:f5:e9:ac:f3:ff:64:0a:
         f2:a5:09:3d:e5:07:d4:80:57:62:d0:99:2f:54:f1:7b:e5:d9:
         64:f6:2e:ef:47:db:37:e2:12:02:d5:a1:85:89:51:27:3b:62:
         a1:44:88:01:1c:8f:35:f5:49:3a:3c:83:54:1c:75:b0:c3:21:
         e6:11:82:2e:c3:ec:6a:04:f9:e0:f0:f6:7d:91:d2:b1:b6:1c:
         77:ce:db:98:d3:00:19:35:93:8b:ab:e3:25:63:0f:7e:83:53:
         55:27:f9:f7:75:38:c3:3d:0f:6f:db:05:66:b3:ec:56:72:2a:
         3e:16:75:f1:a4:b3:38:2a:a1:c9:4d:1f:83:13:65:c3:99:3f:
         fb:05:81:c7:d4:43:10:22:3e:ea:c5:7a:ea:37:cb:5e:f7:f1:
         1b:c5:66:89:88:94:ae:77:fa:a9:76:6d:cd:da:2e:d2:6a:d9:
         1c:08:0e:8d:47:39:3c:b7:55:87:50:7c:e8:3a:35:b0:20:71:
         f0:20:a3:b4:2e:f9:40:b0:bc:88:44:17:b4:ac:95:8d:bf:43:
         5f:93:c3:1b:a5:a6:a5:da:f0:70:dc:bd:85:5e:e3:2e:40:3f:
         9b:7f:f9:de:65:4d:c9:ee:5a:1c:3f:c4:ba:b2:09:21:50:23:
         db:ff:12:b0:db:b4:66:a5:ea:ef:89:de:63:cb:be:4b:85:98:
         94:b8:3a:e2:93:e9:9a:a8
-----BEGIN CERTIFICATE-----
MIIGVjCCBD6gAwIBAgIBAjANBgkqhkiG9w0BAQ0FADBlMQswCQYDVQQGEwJERTEZ
MBcGA1UECgwQRGFtYXNjaGtlc3RyLiAxMTEWMBQGA1UECwwNQXJiZWl0c3ppbW1l
cjEjMCEGA1UEAwwaRGFtYTExIExhYiBJbnRlcm1lZGlhcnkgQ0EwHhcNMTkxMDEz
MTUyNzEyWhcNMjMxMjMxMjM1OTU5WjBhMQswCQYDVQQGEwJERTEZMBcGA1UECgwQ
RGFtYXNjaGtlc3RyLiAxMTEWMBQGA1UECwwNQXJiZWl0c3ppbW1lcjEfMB0GA1UE
AwwWRGFtYTExIExhYiBJZGVudGl0eSBDQTCCAiIwDQYJKoZIhvcNAQEBBQADggIP
ADCCAgoCggIBAOJvaH7R9Nqu1zsd2k5glE65LdIardhK9K+Xt/6ibOMqsq9lRzLn
S5judNvzcv3AQikfr4/1ezAmVF8sRIrt+1NjFFKBr2DyMZqrlz+/G8OWBh5Zkw0P
juHenJMvlpQaFQWl4nrV8Gixj59s9II5/3KXGd8UbYY/6k5qfpEKwZxOmzN2jU/J
b5Z5AQTPnKY5bd4TjBvHE6Vxu4r4kHjTQMfS1zINzZnS/nFTHNJAbPM1vBbGZy3G
BVPzleGDIuOJfO50ldygxBi5rW78cskvKH6WeIfP+DuY5/DF2pokUXP/AZygZgRN
npXl+kJuiu0nEZBFVO9hKpjL0DnV/GDllCDVTg61RnCur+OsPZLTIYKxeqXqk5XW
Nqsyc3q27SF3LeVyWEzfmnowxuiOxKu1lJIf4oNtGb6lYhHJht/isf52Gqx/aV2o
B05fk8DIASKKQsNBL3VXLuiz2dDf5HKNenBJwRKD/1gMM4ljsHJeTieEaH5ZWndi
RaZutstEQA47621z43KDUO4N5KhR0DStNRSe99tRsi64y+FSUlTc7C2JfWQ/Y0Om
92gnZKwsX9hGDw0Q1/eckJEUhMfBRZ111JiBK2YDGjJmusPIYyF5/Kx+0Q3TU+8e
onxr6nEz+2HJ+UnY4Gildep6vGVzxnq5Q4uT7e4l39cO7FAetsL2D55bAgMBAAGj
ggETMIIBDzAOBgNVHQ8BAf8EBAMCAQYwEgYDVR0TAQH/BAgwBgEB/wIBADAdBgNV
HQ4EFgQUvK7oqmwIWALbju5L7Jmn9p5YpQcwHwYDVR0jBBgwFoAUXxeesz18NMCh
m3OZ2jw0RHRXgBYwWQYIKwYBBQUHAQEETTBLMEkGCCsGAQUFBzAChj1odHRwczov
L2VsYm9zc28uZ2l0aHViLmlvL3g1MDkvL0RhbWExMV9JbnRlcm1lZGlhcnlfQ0Et
Y2EuY3J0ME4GA1UdHwRHMEUwQ6BBoD+GPWh0dHBzOi8vZWxib3Nzby5naXRodWIu
aW8veDUwOS8vRGFtYTExX0ludGVybWVkaWFyeV9DQS1jYS5jcmwwDQYJKoZIhvcN
AQENBQADggIBABuBepRpZi7paNjwuPBfH4jjUzLZfYmF4rZE/h/dDQLrruRbJTiL
HfwZY3QZq9BIEUP6tS1bEeh0JVE+gx8PxcVUBAR5Uvi7ws75SFKCxJPDuDjCNHcX
3eRECdP5enDNO6u8OwCVpW3LcU8DqrSMlgzLDMiylay27cb4+OPLjsIXQNHHglyn
+dh+AvlQv6V0jsPt3UYjs8l8Z/QmQKoxb26cLnlwiQ+DdgL3pRLOyT4+waF1q7ff
dUvIgr6TVMFu656jjqxk+nf0MH1+gAXVkDXSo2wBwp4VUmKmvimZXnL9DOG6HFyc
9qHAD3B6ZKBsRcesr9Yw9ems8/9kCvKlCT3lB9SAV2LQmS9U8Xvl2WT2Lu9H2zfi
EgLVoYWJUSc7YqFEiAEcjzX1STo8g1QcdbDDIeYRgi7D7GoE+eDw9n2R0rG2HHfO
25jTABk1k4ur4yVjD36DU1Un+fd1OMM9D2/bBWaz7FZyKj4WdfGkszgqoclNH4MT
ZcOZP/sFgcfUQxAiPurFeuo3y1738RvFZomIlK53+ql2bc3aLtJq2RwIDo1HOTy3
VYdQfOg6NbAgcfAgo7Qu+UCwvIhEF7SslY2/Q1+TwxulpqXa8HDcvYVe4y5AP5t/
+d5lTcnuWhw/xLqyCSFQI9v/ErDbtGal6u+J3mPLvkuFmJS4OuKT6Zqo
-----END CERTIFICATE-----
