Certificate:
    Data:
        Version: 3 (0x2)
        Serial Number: 6 (0x6)
        Signature Algorithm: sha512WithRSAEncryption
        Issuer: C=DE, O=Damaschkestr. 11, OU=Arbeitszimmer, CN=Dama11 Lab Root CA
        Validity
            Not Before: Oct  4 13:23:51 2025 GMT
            Not After : Oct 31 23:59:59 2030 GMT
        Subject: C=DE, O=Damaschkestr. 11, OU=Arbeitszimmer, CN=Dama11 Lab Intermediary CA
        Subject Public Key Info:
            Public Key Algorithm: rsaEncryption
                Public-Key: (4096 bit)
                Modulus:
                    00:a2:4d:08:f0:15:50:96:6f:9b:c8:b2:b7:3f:3f:
                    37:d4:42:33:70:bb:7e:3c:02:be:79:c1:96:b0:a6:
                    67:37:ae:9d:98:26:46:96:13:e7:bf:21:1f:ce:eb:
                    62:21:d8:7b:60:88:4d:be:61:d9:d4:92:9e:9b:8f:
                    28:ce:52:3f:5e:37:41:fd:26:a9:a0:f2:22:5f:95:
                    af:00:78:51:b1:8d:e5:b7:af:63:2d:0f:06:af:36:
                    ed:f5:76:0c:b3:a4:f1:20:7b:37:52:84:b9:93:ba:
                    0c:14:b6:ad:a4:22:5a:fb:b4:ac:25:3d:a5:ad:d4:
                    e9:63:b3:a9:43:32:3b:2e:b7:9e:85:45:77:69:1f:
                    fd:01:8b:46:07:68:5f:83:c2:7a:88:e4:19:32:56:
                    3b:eb:56:65:8a:f6:71:f2:c8:58:9c:6f:d8:2e:f5:
                    bf:0a:f6:55:e6:5d:25:bf:61:6e:93:29:c4:43:7d:
                    97:09:3f:01:93:e0:49:9c:1d:fd:4b:15:79:58:eb:
                    a6:cc:3b:c3:61:b5:da:3a:21:38:3d:18:db:18:a9:
                    14:52:c1:a9:6f:59:b3:e4:97:fa:d6:de:de:1a:80:
                    f6:7a:1b:af:0e:48:f5:bb:54:b9:e5:93:55:33:18:
                    50:7e:2a:1b:d0:b1:13:2d:ad:e4:02:40:53:04:b4:
                    a9:37:69:4d:da:35:c6:54:e0:46:c8:db:c6:17:a6:
                    87:78:88:54:e9:ed:ef:04:c8:35:40:d5:04:3c:51:
                    cc:9c:ef:de:3a:d0:3b:b6:d6:6a:83:86:e6:28:af:
                    e0:e4:b0:db:68:54:1b:3a:b7:24:b7:56:a9:ad:80:
                    18:3a:ae:8d:4b:b1:a8:01:b7:df:b8:2f:48:e2:c3:
                    f6:60:69:90:eb:08:69:bd:6e:5b:7b:6d:5b:77:0f:
                    a7:51:40:e9:c7:39:47:ec:54:73:f5:78:ab:9e:43:
                    5d:15:9d:9c:9d:1b:07:94:5a:d1:ad:b1:5e:02:b0:
                    87:02:c8:93:02:b8:2e:07:31:75:ae:07:60:a8:25:
                    02:bd:fe:8c:42:4d:fc:d2:a4:f6:bf:c1:38:63:c2:
                    71:34:0d:bc:21:3c:c6:a7:4a:dc:36:56:f0:54:97:
                    a7:f8:8b:a0:b5:84:e9:61:0d:1c:aa:b9:a3:51:2f:
                    43:f2:7a:2e:09:25:f7:59:26:8a:92:32:df:46:f2:
                    69:ce:33:c5:b9:43:ad:0b:93:ff:d4:17:f5:04:90:
                    53:06:5d:91:12:76:18:0f:b3:9b:62:57:43:6b:ce:
                    58:a9:2a:73:13:5a:b8:10:6f:30:c2:da:83:b6:2b:
                    d2:3f:a3:59:65:60:fd:6e:bd:32:15:0e:2e:49:64:
                    da:8f:6d
                Exponent: 65537 (0x10001)
        X509v3 extensions:
            X509v3 Key Usage: critical
                Certificate Sign, CRL Sign
            X509v3 Basic Constraints: critical
                CA:TRUE
            X509v3 Subject Key Identifier: 
                5F:17:9E:B3:3D:7C:34:C0:A1:9B:73:99:DA:3C:34:44:74:57:80:16
            X509v3 Authority Key Identifier: 
                01:B2:2D:56:3C:87:7F:A8:5F:61:BC:58:01:BF:1E:FD:4A:CA:CA:8D
            Authority Information Access: 
                CA Issuers - URI:https://elbosso.github.io/x509//Dama11_Root_CA-ca.crt
            X509v3 CRL Distribution Points: 
                Full Name:
                  URI:https://elbosso.github.io/x509//Dama11_Root_CA-ca.crl
    Signature Algorithm: sha512WithRSAEncryption
    Signature Value:
        6c:33:01:27:f5:b3:1f:ec:1b:5f:2d:40:dc:2b:20:4e:ab:69:
        b7:8d:57:4c:54:6c:76:58:40:b2:f4:14:ae:33:45:c2:85:b7:
        b6:e3:b4:a9:a5:e5:40:be:67:97:81:2e:b2:8c:a4:01:1f:7c:
        7a:58:a7:e4:1b:ef:7d:37:b2:d4:d1:ef:94:46:ee:90:a4:c1:
        5d:dc:4c:31:14:f1:e1:80:f9:45:c7:e9:38:cb:ca:ea:0e:f2:
        fb:11:00:5f:c8:30:e6:79:4b:4b:e2:7c:1e:90:82:45:dd:39:
        57:98:3a:d1:27:89:25:30:95:c5:4c:ae:a4:a7:26:2a:03:97:
        a8:b6:b1:79:53:af:29:e7:2e:dd:fd:b5:a6:c3:68:59:e6:be:
        63:c2:d6:c4:c0:3d:68:e3:6a:17:b4:b8:2e:b5:56:4f:ed:06:
        0c:ea:13:f3:47:52:ac:00:15:2a:d0:d0:e3:e0:cb:03:ec:23:
        76:38:f0:6c:46:8f:00:16:14:36:0f:49:fd:84:1a:5b:76:3e:
        a3:c2:27:ba:b1:a2:9e:b3:d8:cd:e4:6d:a6:5c:ce:04:64:34:
        06:be:18:a1:82:89:ae:78:4d:f9:e0:ff:2c:56:70:a7:93:0d:
        1f:32:a9:fe:69:f5:18:9d:1a:87:e0:8a:1a:79:8f:24:61:48:
        da:34:70:a7:47:1e:fc:88:60:bd:32:15:32:4b:14:b8:e6:ec:
        e8:6b:71:ec:72:27:4c:76:5b:11:bc:73:49:27:9d:07:07:c0:
        be:63:4f:96:86:ff:02:ba:4e:fe:a6:b7:aa:f5:b8:1e:b6:7f:
        fb:5e:1f:20:d8:8f:6d:a8:23:2f:a4:4b:d5:80:ed:2c:82:19:
        76:3d:21:6f:a3:e2:4e:5f:b4:52:e4:41:1a:32:58:93:38:a0:
        fe:d1:9c:47:38:66:3c:f8:52:51:08:8f:20:00:4e:c2:ac:e0:
        4d:c2:39:54:6b:04:2f:04:bf:a4:f4:eb:e4:1d:9b:3f:95:55:
        04:24:cf:4e:9d:76:6d:da:a8:e0:c7:b0:07:4a:f0:75:d6:3f:
        83:cb:0a:19:89:10:30:2f:f6:8c:62:3c:a5:de:09:3f:04:53:
        13:d4:c6:b8:2b:fc:8b:85:0a:17:9f:42:4e:f8:e1:6a:6a:87:
        1d:4e:43:b3:82:c3:76:ca:a3:21:71:20:ba:66:fa:59:d1:da:
        6a:6a:64:05:71:92:77:51:a9:2b:08:8f:2c:61:6e:a0:5f:4f:
        35:e4:84:91:3f:30:38:f0:30:6e:b9:92:e8:70:72:de:2a:f5:
        6f:4d:6c:04:f9:b9:6d:bb:d5:47:3d:d7:94:5b:8a:b9:e4:e0:
        dc:5e:6e:d2:fe:c1:75:31
-----BEGIN CERTIFICATE-----
MIIGPTCCBCWgAwIBAgIBBjANBgkqhkiG9w0BAQ0FADBdMQswCQYDVQQGEwJERTEZ
MBcGA1UECgwQRGFtYXNjaGtlc3RyLiAxMTEWMBQGA1UECwwNQXJiZWl0c3ppbW1l
cjEbMBkGA1UEAwwSRGFtYTExIExhYiBSb290IENBMB4XDTI1MTAwNDEzMjM1MVoX
DTMwMTAzMTIzNTk1OVowZTELMAkGA1UEBhMCREUxGTAXBgNVBAoMEERhbWFzY2hr
ZXN0ci4gMTExFjAUBgNVBAsMDUFyYmVpdHN6aW1tZXIxIzAhBgNVBAMMGkRhbWEx
MSBMYWIgSW50ZXJtZWRpYXJ5IENBMIICIjANBgkqhkiG9w0BAQEFAAOCAg8AMIIC
CgKCAgEAok0I8BVQlm+byLK3Pz831EIzcLt+PAK+ecGWsKZnN66dmCZGlhPnvyEf
zutiIdh7YIhNvmHZ1JKem48ozlI/XjdB/SapoPIiX5WvAHhRsY3lt69jLQ8Grzbt
9XYMs6TxIHs3UoS5k7oMFLatpCJa+7SsJT2lrdTpY7OpQzI7LreehUV3aR/9AYtG
B2hfg8J6iOQZMlY761ZlivZx8shYnG/YLvW/CvZV5l0lv2FukynEQ32XCT8Bk+BJ
nB39SxV5WOumzDvDYbXaOiE4PRjbGKkUUsGpb1mz5Jf61t7eGoD2ehuvDkj1u1S5
5ZNVMxhQfiob0LETLa3kAkBTBLSpN2lN2jXGVOBGyNvGF6aHeIhU6e3vBMg1QNUE
PFHMnO/eOtA7ttZqg4bmKK/g5LDbaFQbOrckt1aprYAYOq6NS7GoAbffuC9I4sP2
YGmQ6whpvW5be21bdw+nUUDpxzlH7FRz9XirnkNdFZ2cnRsHlFrRrbFeArCHAsiT
ArguBzF1rgdgqCUCvf6MQk380qT2v8E4Y8JxNA28ITzGp0rcNlbwVJen+IugtYTp
YQ0cqrmjUS9D8nouCSX3WSaKkjLfRvJpzjPFuUOtC5P/1Bf1BJBTBl2REnYYD7Ob
YldDa85YqSpzE1q4EG8wwtqDtivSP6NZZWD9br0yFQ4uSWTaj20CAwEAAaOB/zCB
/DAOBgNVHQ8BAf8EBAMCAQYwDwYDVR0TAQH/BAUwAwEB/zAdBgNVHQ4EFgQUXxee
sz18NMChm3OZ2jw0RHRXgBYwHwYDVR0jBBgwFoAUAbItVjyHf6hfYbxYAb8e/UrK
yo0wUQYIKwYBBQUHAQEERTBDMEEGCCsGAQUFBzAChjVodHRwczovL2VsYm9zc28u
Z2l0aHViLmlvL3g1MDkvL0RhbWExMV9Sb290X0NBLWNhLmNydDBGBgNVHR8EPzA9
MDugOaA3hjVodHRwczovL2VsYm9zc28uZ2l0aHViLmlvL3g1MDkvL0RhbWExMV9S
b290X0NBLWNhLmNybDANBgkqhkiG9w0BAQ0FAAOCAgEAbDMBJ/WzH+wbXy1A3Csg
Tqtpt41XTFRsdlhAsvQUrjNFwoW3tuO0qaXlQL5nl4EusoykAR98elin5BvvfTey
1NHvlEbukKTBXdxMMRTx4YD5RcfpOMvK6g7y+xEAX8gw5nlLS+J8HpCCRd05V5g6
0SeJJTCVxUyupKcmKgOXqLaxeVOvKecu3f21psNoWea+Y8LWxMA9aONqF7S4LrVW
T+0GDOoT80dSrAAVKtDQ4+DLA+wjdjjwbEaPABYUNg9J/YQaW3Y+o8InurGinrPY
zeRtplzOBGQ0Br4YoYKJrnhN+eD/LFZwp5MNHzKp/mn1GJ0ah+CKGnmPJGFI2jRw
p0ce/IhgvTIVMksUuObs6Gtx7HInTHZbEbxzSSedBwfAvmNPlob/ArpO/qa3qvW4
HrZ/+14fINiPbagjL6RL1YDtLIIZdj0hb6PiTl+0UuRBGjJYkzig/tGcRzhmPPhS
UQiPIABOwqzgTcI5VGsELwS/pPTr5B2bP5VVBCTPTp12bdqo4MewB0rwddY/g8sK
GYkQMC/2jGI8pd4JPwRTE9TGuCv8i4UKF59CTvjhamqHHU5Ds4LDdsqjIXEgumb6
WdHaampkBXGSd1GpKwiPLGFuoF9PNeSEkT8wOPAwbrmS6HBy3ir1b01sBPm5bbvV
Rz3XlFuKueTg3F5u0v7BdTE=
-----END CERTIFICATE-----
