Certificate:
    Data:
        Version: 3 (0x2)
        Serial Number: 9 (0x9)
        Signature Algorithm: sha512WithRSAEncryption
        Issuer: C=DE, O=Damaschkestr. 11, OU=Arbeitszimmer, CN=Dama11 Lab Intermediary Test CA
        Validity
            Not Before: Dec  9 13:54:31 2022 GMT
            Not After : Dec  9 23:59:59 2025 GMT
        Subject: C=DE, O=Damaschkestr. 11, OU=Arbeitszimmer, CN=Dama11 Lab Identity Test CA
        Subject Public Key Info:
            Public Key Algorithm: rsaEncryption
                RSA Public-Key: (4096 bit)
                Modulus:
                    00:d7:ce:5c:38:1c:50:68:d7:de:6d:8b:30:9b:0c:
                    91:61:8d:07:5f:a6:81:b4:e0:da:fd:1b:48:b5:8a:
                    e8:c4:5f:e0:78:e9:a7:a9:83:1c:3f:ed:64:a1:bf:
                    7b:9c:ec:d8:bb:08:d8:6e:9f:72:85:ce:e3:c3:63:
                    e9:0d:22:bc:37:f9:e8:a3:96:5b:e9:d5:17:dc:ab:
                    13:07:00:73:0c:45:55:f0:bf:80:fe:59:ed:81:ab:
                    b5:40:ae:b3:5c:7a:aa:49:10:3a:a4:6a:83:50:86:
                    4b:d0:75:65:85:9c:94:5a:85:00:d5:16:85:3a:c9:
                    b1:5d:0e:8d:61:52:05:6f:35:44:00:34:50:9c:77:
                    7a:04:20:7d:78:75:41:41:66:bb:31:fa:fe:d4:b7:
                    d9:9e:83:05:cf:22:3e:18:c3:8f:5a:bd:ee:14:f9:
                    3a:78:6f:0b:82:1d:98:fa:e5:99:35:5b:f4:4d:5d:
                    c3:3f:89:c0:d1:39:8e:9e:8d:2d:62:32:4a:09:85:
                    8a:d0:c2:af:62:86:f5:97:5e:a0:31:da:41:50:3f:
                    f2:20:a9:37:ca:87:08:e7:b7:96:4f:48:ed:71:0e:
                    ca:24:db:09:4e:3b:d1:43:ee:02:a6:4c:31:ff:13:
                    3e:18:46:45:f2:41:33:f6:e9:c4:ba:c3:66:5e:5a:
                    79:21:20:2c:0e:bc:da:73:98:92:1f:16:78:56:f7:
                    6d:a2:fa:45:2c:06:35:67:8c:59:f1:fb:54:08:aa:
                    f6:dd:ff:16:5d:be:33:8c:dc:d4:11:9b:30:f3:81:
                    86:85:52:86:86:b1:df:82:84:77:11:85:ba:4c:17:
                    db:1e:ef:9d:e5:14:51:6c:b0:26:86:b5:a0:6f:1d:
                    d0:dd:f6:02:94:26:d8:63:d3:f4:c8:b1:39:51:ce:
                    cb:57:1a:85:a9:71:bc:c8:59:63:5e:78:03:eb:cd:
                    19:05:b0:5b:c5:3f:08:b2:fb:ee:51:8e:d7:2b:3a:
                    bd:62:4c:e7:79:0b:96:04:23:e2:2c:44:2f:9a:df:
                    ac:b0:b8:2a:e4:5b:5a:9c:60:6b:58:cb:51:bf:bd:
                    9b:5b:42:1f:d0:60:c7:27:42:07:e4:23:31:5a:28:
                    e2:a9:b5:43:f9:5a:24:62:c4:12:55:ab:65:26:74:
                    a6:70:37:93:96:05:f9:74:d0:b3:97:a2:9c:47:ed:
                    8c:4e:6f:98:d9:9f:e2:7c:01:f4:1c:f4:de:d3:20:
                    be:07:94:a6:c4:fe:a6:7f:89:68:0b:3e:c7:48:f9:
                    99:38:f6:9b:e6:84:87:b1:69:08:70:f9:aa:82:ff:
                    a6:0c:d6:a2:0a:f6:93:0f:2a:b0:73:2d:ca:8e:88:
                    96:66:0b
                Exponent: 65537 (0x10001)
        X509v3 extensions:
            X509v3 Key Usage: critical
                Certificate Sign, CRL Sign
            X509v3 Basic Constraints: critical
                CA:TRUE, pathlen:0
            X509v3 Subject Key Identifier: 
                06:BD:9B:12:28:9D:4C:3F:F6:97:A3:F3:B9:83:58:70:77:04:10:0B
            X509v3 Authority Key Identifier: 
                keyid:E8:9A:25:D6:31:41:C2:C7:43:10:47:DA:64:E7:69:4A:C3:F3:4B:27

            Authority Information Access: 
                CA Issuers - URI:https://elbosso.github.io/x509//Dama11_Intermediary_Test_CA-ca.crt

            X509v3 CRL Distribution Points: 

                Full Name:
                  URI:https://elbosso.github.io/x509//Dama11_Intermediary_Test_CA-ca.crl

    Signature Algorithm: sha512WithRSAEncryption
         af:bf:d7:46:3b:49:7a:7f:ff:69:75:5a:db:f2:6d:1c:eb:a5:
         9c:fc:01:52:f4:e1:37:43:c4:c0:b1:73:8a:1d:50:5c:dd:0c:
         d1:27:a8:ab:48:93:f7:85:28:68:f9:b0:97:b2:d1:75:10:04:
         aa:da:74:62:c7:95:2a:e2:2a:d1:0f:cc:11:2c:a3:45:04:35:
         9b:03:2f:86:b7:54:b6:93:fe:4f:a5:a9:20:b8:4a:b5:e5:53:
         9b:11:1b:e7:f1:55:6b:5a:11:fc:d3:35:f6:1f:78:54:fb:8a:
         dd:76:53:4e:ba:53:16:42:6b:a6:b0:02:82:59:97:4e:86:d8:
         9f:be:e2:69:f6:85:62:a8:22:e0:4f:b2:f5:f6:59:10:30:27:
         84:4e:d6:3c:6f:2c:16:a0:70:94:ae:a4:35:2a:29:13:a1:a6:
         dc:b7:23:0f:bd:7d:3e:3c:8a:1c:c9:83:a3:ac:6b:fd:cd:5c:
         10:7a:5a:8a:2d:b7:be:91:09:99:cc:35:9c:68:b7:c7:d6:32:
         fe:c0:79:61:41:76:7b:ea:93:a5:e4:c2:3b:74:6e:3d:e1:c1:
         ab:9e:11:33:a9:32:36:2a:b1:df:a4:81:52:ec:f4:0f:ac:01:
         27:04:25:95:92:b0:40:b8:1c:d8:fe:65:cf:ab:f7:30:f3:7a:
         2d:2b:53:9b:fb:cf:76:a9:f3:65:84:9a:40:19:c2:05:6f:c7:
         b9:e0:5c:ae:83:53:b5:cd:98:97:30:6d:1e:31:38:47:2c:46:
         5f:bc:6f:12:69:2d:40:20:1b:33:04:cb:d5:82:26:f5:44:58:
         79:c5:e5:2e:e9:f2:3a:bd:ff:1b:2f:64:e8:49:bc:27:69:62:
         f6:2a:21:c8:61:5e:ee:ab:0c:3e:79:f7:63:1f:49:70:cb:bf:
         63:29:49:67:66:d7:0b:7b:a0:4a:8b:83:37:72:04:b2:89:05:
         93:9a:44:35:fe:15:67:58:50:f8:af:74:81:8e:07:90:4b:58:
         35:6a:dc:3e:85:49:c2:a8:cd:08:3a:58:76:a0:ee:0f:c9:68:
         9f:d6:19:60:c1:95:51:6e:5a:93:54:89:19:e0:7c:fe:9b:2f:
         28:ab:33:c2:20:e6:02:15:b2:04:e7:ad:42:02:64:70:ec:e2:
         ee:7a:0e:2d:c6:b9:4c:f7:cc:7d:45:2b:a5:96:b0:db:61:08:
         ba:03:85:bb:fd:4d:56:a8:c5:84:4c:71:d1:1a:12:90:b7:80:
         0c:fe:0b:46:4a:ec:80:86:5d:c9:8d:5a:1e:58:b5:ac:30:e2:
         bd:78:43:e2:f6:bb:b5:fd:ee:bb:4e:fe:0a:87:c7:30:92:37:
         05:b9:b8:79:a8:2e:b9:4c
-----BEGIN CERTIFICATE-----
MIIGajCCBFKgAwIBAgIBCTANBgkqhkiG9w0BAQ0FADBqMQswCQYDVQQGEwJERTEZ
MBcGA1UECgwQRGFtYXNjaGtlc3RyLiAxMTEWMBQGA1UECwwNQXJiZWl0c3ppbW1l
cjEoMCYGA1UEAwwfRGFtYTExIExhYiBJbnRlcm1lZGlhcnkgVGVzdCBDQTAeFw0y
MjEyMDkxMzU0MzFaFw0yNTEyMDkyMzU5NTlaMGYxCzAJBgNVBAYTAkRFMRkwFwYD
VQQKDBBEYW1hc2Noa2VzdHIuIDExMRYwFAYDVQQLDA1BcmJlaXRzemltbWVyMSQw
IgYDVQQDDBtEYW1hMTEgTGFiIElkZW50aXR5IFRlc3QgQ0EwggIiMA0GCSqGSIb3
DQEBAQUAA4ICDwAwggIKAoICAQDXzlw4HFBo195tizCbDJFhjQdfpoG04Nr9G0i1
iujEX+B46aepgxw/7WShv3uc7Ni7CNhun3KFzuPDY+kNIrw3+eijllvp1RfcqxMH
AHMMRVXwv4D+We2Bq7VArrNceqpJEDqkaoNQhkvQdWWFnJRahQDVFoU6ybFdDo1h
UgVvNUQANFCcd3oEIH14dUFBZrsx+v7Ut9megwXPIj4Yw49ave4U+Tp4bwuCHZj6
5Zk1W/RNXcM/icDROY6ejS1iMkoJhYrQwq9ihvWXXqAx2kFQP/IgqTfKhwjnt5ZP
SO1xDsok2wlOO9FD7gKmTDH/Ez4YRkXyQTP26cS6w2ZeWnkhICwOvNpzmJIfFnhW
922i+kUsBjVnjFnx+1QIqvbd/xZdvjOM3NQRmzDzgYaFUoaGsd+ChHcRhbpMF9se
753lFFFssCaGtaBvHdDd9gKUJthj0/TIsTlRzstXGoWpcbzIWWNeeAPrzRkFsFvF
Pwiy++5RjtcrOr1iTOd5C5YEI+IsRC+a36ywuCrkW1qcYGtYy1G/vZtbQh/QYMcn
QgfkIzFaKOKptUP5WiRixBJVq2UmdKZwN5OWBfl00LOXopxH7YxOb5jZn+J8AfQc
9N7TIL4HlKbE/qZ/iWgLPsdI+Zk49pvmhIexaQhw+aqC/6YM1qIK9pMPKrBzLcqO
iJZmCwIDAQABo4IBHTCCARkwDgYDVR0PAQH/BAQDAgEGMBIGA1UdEwEB/wQIMAYB
Af8CAQAwHQYDVR0OBBYEFAa9mxIonUw/9pej87mDWHB3BBALMB8GA1UdIwQYMBaA
FOiaJdYxQcLHQxBH2mTnaUrD80snMF4GCCsGAQUFBwEBBFIwUDBOBggrBgEFBQcw
AoZCaHR0cHM6Ly9lbGJvc3NvLmdpdGh1Yi5pby94NTA5Ly9EYW1hMTFfSW50ZXJt
ZWRpYXJ5X1Rlc3RfQ0EtY2EuY3J0MFMGA1UdHwRMMEowSKBGoESGQmh0dHBzOi8v
ZWxib3Nzby5naXRodWIuaW8veDUwOS8vRGFtYTExX0ludGVybWVkaWFyeV9UZXN0
X0NBLWNhLmNybDANBgkqhkiG9w0BAQ0FAAOCAgEAr7/XRjtJen//aXVa2/JtHOul
nPwBUvThN0PEwLFzih1QXN0M0Seoq0iT94UoaPmwl7LRdRAEqtp0YseVKuIq0Q/M
ESyjRQQ1mwMvhrdUtpP+T6WpILhKteVTmxEb5/FVa1oR/NM19h94VPuK3XZTTrpT
FkJrprACglmXTobYn77iafaFYqgi4E+y9fZZEDAnhE7WPG8sFqBwlK6kNSopE6Gm
3LcjD719PjyKHMmDo6xr/c1cEHpaii23vpEJmcw1nGi3x9Yy/sB5YUF2e+qTpeTC
O3RuPeHBq54RM6kyNiqx36SBUuz0D6wBJwQllZKwQLgc2P5lz6v3MPN6LStTm/vP
dqnzZYSaQBnCBW/HueBcroNTtc2YlzBtHjE4RyxGX7xvEmktQCAbMwTL1YIm9URY
ecXlLunyOr3/Gy9k6Em8J2li9iohyGFe7qsMPnn3Yx9JcMu/YylJZ2bXC3ugSouD
N3IEsokFk5pENf4VZ1hQ+K90gY4HkEtYNWrcPoVJwqjNCDpYdqDuD8lon9YZYMGV
UW5ak1SJGeB8/psvKKszwiDmAhWyBOetQgJkcOzi7noOLca5TPfMfUUrpZaw22EI
ugOFu/1NVqjFhExx0RoSkLeADP4LRkrsgIZdyY1aHli1rDDivXhD4va7tf3uu07+
CofHMJI3Bbm4eaguuUw=
-----END CERTIFICATE-----
