Certificate:
    Data:
        Version: 3 (0x2)
        Serial Number: 2 (0x2)
        Signature Algorithm: sha512WithRSAEncryption
        Issuer: C=DE, O=Damaschkestr. 11, OU=Arbeitszimmer, CN=Dama11 Lab External Party Root CA
        Validity
            Not Before: Dec  9 11:59:26 2022 GMT
            Not After : Dec  9 23:59:59 2025 GMT
        Subject: C=DE, O=Damaschkestr. 11, OU=Arbeitszimmer, CN=Dama11 Lab External Party B Root CA
        Subject Public Key Info:
            Public Key Algorithm: rsaEncryption
                RSA Public-Key: (4096 bit)
                Modulus:
                    00:ac:d9:f0:1d:b4:8e:ad:b2:d3:da:ce:ff:dc:01:
                    50:49:37:8a:0f:0a:98:b3:4e:13:eb:d8:98:dc:b2:
                    58:16:6c:a0:54:2d:cc:cf:2c:70:94:47:e0:4d:6e:
                    73:ef:50:2b:87:73:ee:d6:19:2c:09:45:3b:51:04:
                    f3:4d:eb:97:ca:a0:17:8b:c5:47:5e:21:11:87:bf:
                    5c:c7:e6:6c:8d:37:3a:35:a7:b0:1e:74:bc:3b:a5:
                    21:a6:45:74:c5:d0:71:ea:56:4f:05:e9:8c:46:c0:
                    a2:92:d5:00:5b:10:03:69:ee:ee:a3:a6:20:9d:ad:
                    30:0a:d9:f3:9b:f7:c0:0e:b7:2a:80:86:f6:bf:65:
                    9c:88:d3:d4:78:38:39:e5:4f:9f:0b:c6:a9:5e:f0:
                    4d:1f:5b:f3:46:a3:bd:b8:7a:47:64:cd:56:cb:c1:
                    0f:6e:40:d7:d0:ef:21:e5:a4:2e:57:27:18:34:ff:
                    f3:f9:f0:c3:dd:bb:d6:9f:f9:50:f5:e8:50:5b:29:
                    ab:f7:20:ba:73:28:3b:d8:ab:f7:4a:62:ed:7f:64:
                    d6:f5:8d:31:04:bc:3d:7a:17:15:48:fb:c6:5d:c4:
                    71:d2:da:23:dd:2f:d1:3b:a2:ef:70:38:7f:2d:4e:
                    8c:f9:d4:37:78:ac:bf:29:3e:b6:04:79:cd:0d:bd:
                    9b:cb:5c:16:ff:91:6a:b2:24:22:35:8d:42:0b:f7:
                    f0:83:ef:d5:0e:21:e4:72:ad:ab:98:ee:a8:7b:53:
                    5b:00:e8:b3:ac:c4:cb:f1:d5:17:4f:56:89:13:3a:
                    e7:44:e6:e0:57:25:bb:65:ae:d8:f6:6d:c1:0c:eb:
                    69:7e:69:df:7b:9b:0f:ce:a2:44:b8:6f:c9:0c:25:
                    17:c6:e6:a4:57:45:8b:88:8f:99:16:5b:78:63:69:
                    b4:53:b9:e7:85:74:a6:fd:04:74:e9:69:22:da:54:
                    30:c0:9d:e0:2b:bb:2f:92:9e:3c:f2:83:1a:e9:74:
                    d1:23:b8:52:88:d0:97:d7:bd:58:62:bd:0b:06:54:
                    1d:28:1f:9a:cc:d2:6c:3c:21:ee:b1:bd:d4:36:91:
                    ad:ff:97:bb:69:ff:00:b1:66:b3:ba:86:41:b4:3b:
                    d4:d9:ca:ff:f5:3d:7d:cc:3a:ca:7f:66:a9:d5:0b:
                    86:78:98:d4:de:31:10:c9:fd:bc:78:9a:14:af:16:
                    bf:36:13:8d:a0:2e:8d:69:20:c0:86:5a:f3:65:57:
                    52:e0:9f:ee:b9:b2:3a:9a:35:b4:57:cd:b8:a7:ee:
                    03:61:3f:0f:07:79:83:f2:9f:ac:08:94:7e:3d:80:
                    c8:76:fc:85:fd:f4:8a:b9:81:7d:a9:54:0c:49:c9:
                    6b:42:27
                Exponent: 65537 (0x10001)
        X509v3 extensions:
            X509v3 Key Usage: critical
                Certificate Sign, CRL Sign
            X509v3 Basic Constraints: critical
                CA:TRUE, pathlen:1
            X509v3 Subject Key Identifier: 
                73:7B:36:18:C3:C0:1D:F7:D0:11:76:41:D7:8E:B1:C4:93:B1:E6:04
            X509v3 Authority Key Identifier: 
                keyid:5E:95:AC:02:31:FA:5D:9B:AB:F6:4C:76:E5:E0:FE:F9:EA:E5:37:FC

            Authority Information Access: 
                CA Issuers - URI:https://elbosso.github.io/x509//Dama11_External_Party_Root_CA-ca.crt

            X509v3 CRL Distribution Points: 

                Full Name:
                  URI:https://elbosso.github.io/x509//Dama11_External_Party_Root_CA-ca.crl

    Signature Algorithm: sha512WithRSAEncryption
         10:5d:d6:fb:69:7a:75:de:b4:f8:8f:d1:03:f9:f0:fa:a7:ce:
         c2:2a:c7:1b:cf:0e:e6:6c:47:de:12:6a:52:88:7a:bc:d5:36:
         b1:a9:b2:31:c2:25:1a:95:e1:c8:7d:a3:8e:35:9d:fa:0b:ad:
         25:96:a4:88:d1:45:e4:73:de:04:9b:d6:5c:df:0b:41:7b:9b:
         b8:f2:ff:0a:25:ad:a0:7c:59:37:31:30:bc:e7:5b:e7:7b:1e:
         f7:9e:cc:62:0a:9e:9d:a1:3d:66:0e:5d:54:c7:8e:26:e8:de:
         69:0e:9d:35:c3:56:86:71:b2:8a:19:51:d6:58:96:49:b2:49:
         d3:a4:d7:3b:05:4c:5d:7b:8b:71:b7:58:2d:03:fa:87:76:64:
         88:a6:71:53:e3:78:6a:b7:df:ae:91:25:32:d0:bd:18:12:04:
         ae:4f:14:6a:f4:e5:a5:5a:cf:c0:59:c1:71:3f:3c:e2:1f:26:
         8c:c2:7a:2c:c6:c8:4e:fa:bf:a4:e8:8c:ff:a3:e8:93:24:65:
         87:95:a3:b6:99:7f:47:3d:a6:6a:fe:47:ff:c9:dd:01:61:d7:
         46:0b:93:a9:6c:2c:11:04:ce:5d:4f:25:8d:ac:f4:88:5f:23:
         c1:38:d3:af:8e:f7:9e:04:b7:6c:7b:96:ff:1e:b8:5e:be:f5:
         b5:0b:b4:5f:dc:f3:7f:b3:a0:85:f8:4c:d2:21:cc:32:66:75:
         cf:6e:c9:1b:c2:2b:ec:e1:a2:8e:fb:dd:53:ba:16:20:90:02:
         10:6e:50:17:5a:e8:96:14:23:45:11:68:02:af:ce:7e:7c:f6:
         79:94:d6:b0:cb:a5:f3:f7:5c:66:61:52:9e:3e:f2:c6:50:7f:
         d5:08:60:5b:43:7f:49:b0:32:74:46:46:c2:aa:eb:85:3e:be:
         15:b6:e5:5a:04:e6:d5:32:db:86:74:89:44:17:36:4c:10:7b:
         10:78:be:d8:e0:5f:c2:f7:84:0d:f8:d6:52:fe:86:4f:57:a8:
         5e:d8:c3:d6:db:7e:47:a8:01:75:00:60:70:bb:0a:72:dc:dc:
         86:70:7f:49:c6:01:64:b1:ce:96:e9:d2:dd:98:d6:e6:d3:4a:
         aa:6d:92:3b:ad:24:f9:39:2a:a8:37:b5:a5:8c:e1:3f:37:33:
         15:26:95:17:7e:12:99:e5:f8:3a:fb:f9:9b:9e:1c:96:4c:f8:
         7a:d4:87:8a:82:91:a3:bb:56:09:39:af:4a:6d:a5:b2:10:94:
         ba:71:8d:d6:1f:40:29:ea:35:ae:68:d1:61:04:13:cc:ab:9e:
         01:55:54:86:a5:cd:62:07:22:24:f9:d3:ca:54:6a:21:d4:a7:
         21:a9:c9:20:b8:f1:60:85
-----BEGIN CERTIFICATE-----
MIIGeDCCBGCgAwIBAgIBAjANBgkqhkiG9w0BAQ0FADBsMQswCQYDVQQGEwJERTEZ
MBcGA1UECgwQRGFtYXNjaGtlc3RyLiAxMTEWMBQGA1UECwwNQXJiZWl0c3ppbW1l
cjEqMCgGA1UEAwwhRGFtYTExIExhYiBFeHRlcm5hbCBQYXJ0eSBSb290IENBMB4X
DTIyMTIwOTExNTkyNloXDTI1MTIwOTIzNTk1OVowbjELMAkGA1UEBhMCREUxGTAX
BgNVBAoMEERhbWFzY2hrZXN0ci4gMTExFjAUBgNVBAsMDUFyYmVpdHN6aW1tZXIx
LDAqBgNVBAMMI0RhbWExMSBMYWIgRXh0ZXJuYWwgUGFydHkgQiBSb290IENBMIIC
IjANBgkqhkiG9w0BAQEFAAOCAg8AMIICCgKCAgEArNnwHbSOrbLT2s7/3AFQSTeK
DwqYs04T69iY3LJYFmygVC3MzyxwlEfgTW5z71Arh3Pu1hksCUU7UQTzTeuXyqAX
i8VHXiERh79cx+ZsjTc6NaewHnS8O6UhpkV0xdBx6lZPBemMRsCiktUAWxADae7u
o6Ygna0wCtnzm/fADrcqgIb2v2WciNPUeDg55U+fC8apXvBNH1vzRqO9uHpHZM1W
y8EPbkDX0O8h5aQuVycYNP/z+fDD3bvWn/lQ9ehQWymr9yC6cyg72Kv3SmLtf2TW
9Y0xBLw9ehcVSPvGXcRx0toj3S/RO6LvcDh/LU6M+dQ3eKy/KT62BHnNDb2by1wW
/5FqsiQiNY1CC/fwg+/VDiHkcq2rmO6oe1NbAOizrMTL8dUXT1aJEzrnRObgVyW7
Za7Y9m3BDOtpfmnfe5sPzqJEuG/JDCUXxuakV0WLiI+ZFlt4Y2m0U7nnhXSm/QR0
6Wki2lQwwJ3gK7svkp488oMa6XTRI7hSiNCX171YYr0LBlQdKB+azNJsPCHusb3U
NpGt/5e7af8AsWazuoZBtDvU2cr/9T19zDrKf2ap1QuGeJjU3jEQyf28eJoUrxa/
NhONoC6NaSDAhlrzZVdS4J/uubI6mjW0V824p+4DYT8PB3mD8p+sCJR+PYDIdvyF
/fSKuYF9qVQMSclrQicCAwEAAaOCASEwggEdMA4GA1UdDwEB/wQEAwIBBjASBgNV
HRMBAf8ECDAGAQH/AgEBMB0GA1UdDgQWBBRzezYYw8Ad99ARdkHXjrHEk7HmBDAf
BgNVHSMEGDAWgBRelawCMfpdm6v2THbl4P756uU3/DBgBggrBgEFBQcBAQRUMFIw
UAYIKwYBBQUHMAKGRGh0dHBzOi8vZWxib3Nzby5naXRodWIuaW8veDUwOS8vRGFt
YTExX0V4dGVybmFsX1BhcnR5X1Jvb3RfQ0EtY2EuY3J0MFUGA1UdHwROMEwwSqBI
oEaGRGh0dHBzOi8vZWxib3Nzby5naXRodWIuaW8veDUwOS8vRGFtYTExX0V4dGVy
bmFsX1BhcnR5X1Jvb3RfQ0EtY2EuY3JsMA0GCSqGSIb3DQEBDQUAA4ICAQAQXdb7
aXp13rT4j9ED+fD6p87CKscbzw7mbEfeEmpSiHq81TaxqbIxwiUaleHIfaOONZ36
C60llqSI0UXkc94Em9Zc3wtBe5u48v8KJa2gfFk3MTC851vnex73nsxiCp6doT1m
Dl1Ux44m6N5pDp01w1aGcbKKGVHWWJZJsknTpNc7BUxde4txt1gtA/qHdmSIpnFT
43hqt9+ukSUy0L0YEgSuTxRq9OWlWs/AWcFxPzziHyaMwnosxshO+r+k6Iz/o+iT
JGWHlaO2mX9HPaZq/kf/yd0BYddGC5OpbCwRBM5dTyWNrPSIXyPBONOvjveeBLds
e5b/HrhevvW1C7Rf3PN/s6CF+EzSIcwyZnXPbskbwivs4aKO+91TuhYgkAIQblAX
WuiWFCNFEWgCr85+fPZ5lNawy6Xz91xmYVKePvLGUH/VCGBbQ39JsDJ0RkbCquuF
Pr4VtuVaBObVMtuGdIlEFzZMEHsQeL7Y4F/C94QN+NZS/oZPV6he2MPW235HqAF1
AGBwuwpy3NyGcH9JxgFksc6W6dLdmNbm00qqbZI7rST5OSqoN7WljOE/NzMVJpUX
fhKZ5fg6+/mbnhyWTPh61IeKgpGju1YJOa9KbaWyEJS6cY3WH0Ap6jWuaNFhBBPM
q54BVVSGpc1iByIk+dPKVGoh1KchqckguPFghQ==
-----END CERTIFICATE-----
