Certificate:
    Data:
        Version: 3 (0x2)
        Serial Number: 10 (0xa)
        Signature Algorithm: sha512WithRSAEncryption
        Issuer: C=DE, O=Damaschkestr. 11, OU=Arbeitszimmer, CN=Dama11 Lab Intermediary CA
        Validity
            Not Before: Oct  4 17:42:12 2025 GMT
            Not After : Sep 30 23:59:59 2030 GMT
        Subject: C=DE, O=Damaschkestr. 11, OU=Arbeitszimmer, CN=Dama 11 Lab Software CA
        Subject Public Key Info:
            Public Key Algorithm: rsaEncryption
                Public-Key: (4096 bit)
                Modulus:
                    00:e6:0b:98:42:53:75:ba:24:11:a4:88:08:25:9d:
                    36:05:69:61:15:5f:a8:c8:27:df:31:94:f2:c9:f6:
                    09:a8:ce:18:0d:39:bb:a3:0c:07:48:ca:c3:c5:67:
                    e8:30:fb:bb:15:73:20:a4:f1:5f:44:2d:6e:db:47:
                    0a:83:ab:74:b4:66:02:cf:44:62:af:2f:43:c9:ab:
                    eb:40:b5:76:e1:7c:63:80:5c:57:ab:f9:0d:b5:a5:
                    ef:c9:df:eb:11:4d:d0:bd:69:9e:14:93:90:22:32:
                    53:0d:3c:d1:97:24:30:45:0b:5d:47:06:d6:ec:40:
                    e1:4c:0a:62:59:64:7a:23:b4:48:f3:db:b8:7c:f0:
                    87:c3:4a:52:da:20:a8:4b:48:49:54:c7:4f:38:fc:
                    69:d4:61:ed:1e:ef:9b:81:cd:5a:7c:f0:43:83:f0:
                    4a:27:44:78:ac:16:6a:a2:4e:fe:36:e9:af:a4:27:
                    e4:86:ff:3d:04:df:1f:00:e9:35:ca:f7:21:95:ce:
                    ac:91:4a:e8:c3:8a:b5:3f:d1:6d:f3:1c:4a:fd:52:
                    06:79:70:30:4a:25:13:74:b8:cc:21:b8:de:bc:29:
                    17:dd:49:13:8e:39:d2:8f:a7:20:8b:68:7b:c6:5a:
                    b4:42:31:62:4e:1c:b7:39:d9:6c:ba:8d:e5:f0:b8:
                    90:1f:11:79:7d:ae:bc:cd:51:4c:5a:bc:3a:84:28:
                    4e:70:5e:a2:8c:c2:a4:1b:e2:d1:f7:e2:92:be:68:
                    70:27:49:9d:49:99:80:cd:ab:05:1c:a2:a1:c5:bd:
                    77:1d:4b:c6:46:5d:4c:13:43:5f:58:08:f3:62:47:
                    ca:ce:d6:3d:93:e8:5a:72:45:93:64:6a:4e:c9:d0:
                    65:76:5f:99:09:48:8a:58:1e:96:20:37:dd:9f:6b:
                    12:92:74:fb:3a:c5:4c:a2:c0:3a:0b:49:58:78:3f:
                    7e:1c:24:17:28:a7:75:49:e8:26:b6:d8:7d:da:c5:
                    24:ba:2d:4a:9f:a9:3d:fb:da:a5:ab:d8:f5:0a:90:
                    cb:4e:0b:3a:34:80:4d:29:ab:f4:5c:f5:56:16:f0:
                    42:d6:4a:9e:2e:60:0e:10:d3:f2:8b:0d:a0:16:a8:
                    3e:81:67:71:f3:e2:01:17:bb:2e:49:1a:fd:ba:82:
                    f5:7d:3f:5c:0a:cd:59:f0:88:78:25:39:b2:86:a3:
                    b1:9d:a2:f5:e4:75:d1:fc:09:bb:04:ce:ac:40:f2:
                    42:32:7b:31:09:9d:b9:67:e6:9c:f2:84:34:42:c4:
                    09:11:08:55:5a:a4:fc:e9:59:d7:65:f4:06:5f:8b:
                    e6:e7:80:41:05:59:f5:e7:94:48:08:a6:db:45:c9:
                    d8:f5:ef
                Exponent: 65537 (0x10001)
        X509v3 extensions:
            X509v3 Key Usage: critical
                Certificate Sign, CRL Sign
            X509v3 Basic Constraints: critical
                CA:TRUE, pathlen:0
            X509v3 Subject Key Identifier: 
                96:97:A5:58:7E:FD:C5:CB:91:B9:41:22:C9:68:2E:4E:A0:85:37:C3
            X509v3 Authority Key Identifier: 
                5F:17:9E:B3:3D:7C:34:C0:A1:9B:73:99:DA:3C:34:44:74:57:80:16
            Authority Information Access: 
                CA Issuers - URI:https://elbosso.github.io/x509//Dama11_Intermediary_CA-ca.crt
            X509v3 CRL Distribution Points: 
                Full Name:
                  URI:https://elbosso.github.io/x509//Dama11_Intermediary_CA-ca.crl
    Signature Algorithm: sha512WithRSAEncryption
    Signature Value:
        0b:ed:e1:e6:d8:cc:af:de:08:14:1d:25:e7:d2:93:b6:a9:25:
        41:76:24:86:b1:33:97:e5:66:ce:f3:9e:d6:0a:91:90:bf:e4:
        f1:ea:82:fa:32:3c:6d:6a:d9:bf:ea:3a:3c:cc:fa:2f:5a:68:
        1e:58:6b:31:af:fe:b0:d2:f9:a8:7c:6c:29:c9:5d:de:62:c5:
        82:5b:22:cc:17:f9:cc:c4:1a:79:76:49:fc:c6:2c:ba:63:0f:
        52:fc:3e:5d:5e:7e:54:23:3e:d6:d1:ae:2b:72:14:00:2e:17:
        61:b0:c6:6d:32:f5:44:69:8b:65:6e:e1:38:ef:7d:8c:07:ea:
        54:7d:39:1e:73:ed:27:77:13:a1:ba:e5:5e:cd:62:39:c4:1b:
        5d:a4:a6:86:07:cd:88:9b:de:0b:c6:c2:47:02:63:12:1b:d7:
        46:2e:8b:b7:43:48:0d:34:fd:1a:ba:8d:1a:82:4f:ab:82:00:
        50:d6:ba:f1:3c:90:3f:16:e1:75:96:fa:9a:f6:84:92:33:f4:
        f6:2c:57:b7:45:62:5e:22:4f:e4:a5:d4:84:29:a2:eb:ff:5b:
        15:6f:a7:ef:11:d0:0a:5f:b7:6e:50:e4:c9:a5:07:13:98:1d:
        9f:1f:ba:c5:de:47:69:c2:0c:79:b2:38:f6:6b:b5:a8:e5:65:
        63:68:1d:5f:91:eb:3b:a0:d1:72:20:a6:2c:45:0b:00:6e:eb:
        3d:c7:ef:00:06:76:fe:dc:3d:b7:a9:9f:fd:56:04:4c:23:2a:
        a8:26:58:e3:a7:c2:48:98:42:e0:4b:f8:5f:70:30:b6:d7:74:
        ab:85:5d:9a:fe:83:d5:7b:1b:e4:75:37:c9:56:05:31:c1:7d:
        86:94:bc:22:45:bf:ce:8a:1c:6a:36:5d:4d:02:aa:32:3b:12:
        84:eb:7b:0a:39:30:a5:b6:9b:36:62:d4:c8:bd:fe:0a:99:ea:
        b3:02:14:4b:d3:54:27:c5:c0:d6:43:33:25:e5:ef:ef:c8:da:
        1a:16:83:3d:76:1c:ee:39:bb:d9:02:32:9f:b3:54:5c:3c:3b:
        ec:7e:6a:aa:11:8e:72:b3:00:2b:a3:99:f5:4b:81:75:5d:56:
        72:9a:4b:a5:1f:76:4d:bd:2c:c5:df:2f:4a:75:0e:61:5e:f2:
        b8:d2:52:2a:6e:42:92:f0:10:2e:56:e8:84:a5:f8:d5:14:54:
        45:3a:b8:ab:15:65:20:db:8f:36:1b:4c:fd:17:78:89:31:07:
        bd:3d:c2:d3:7c:c0:0c:14:c4:78:5d:48:08:c1:9b:7c:8b:84:
        c4:c5:83:f9:f7:ff:23:f5:c7:08:75:a3:cd:7a:02:00:e6:a0:
        3a:bf:fa:25:69:02:1b:10
-----BEGIN CERTIFICATE-----
MIIGVzCCBD+gAwIBAgIBCjANBgkqhkiG9w0BAQ0FADBlMQswCQYDVQQGEwJERTEZ
MBcGA1UECgwQRGFtYXNjaGtlc3RyLiAxMTEWMBQGA1UECwwNQXJiZWl0c3ppbW1l
cjEjMCEGA1UEAwwaRGFtYTExIExhYiBJbnRlcm1lZGlhcnkgQ0EwHhcNMjUxMDA0
MTc0MjEyWhcNMzAwOTMwMjM1OTU5WjBiMQswCQYDVQQGEwJERTEZMBcGA1UECgwQ
RGFtYXNjaGtlc3RyLiAxMTEWMBQGA1UECwwNQXJiZWl0c3ppbW1lcjEgMB4GA1UE
AwwXRGFtYSAxMSBMYWIgU29mdHdhcmUgQ0EwggIiMA0GCSqGSIb3DQEBAQUAA4IC
DwAwggIKAoICAQDmC5hCU3W6JBGkiAglnTYFaWEVX6jIJ98xlPLJ9gmozhgNObuj
DAdIysPFZ+gw+7sVcyCk8V9ELW7bRwqDq3S0ZgLPRGKvL0PJq+tAtXbhfGOAXFer
+Q21pe/J3+sRTdC9aZ4Uk5AiMlMNPNGXJDBFC11HBtbsQOFMCmJZZHojtEjz27h8
8IfDSlLaIKhLSElUx084/GnUYe0e75uBzVp88EOD8EonRHisFmqiTv426a+kJ+SG
/z0E3x8A6TXK9yGVzqyRSujDirU/0W3zHEr9UgZ5cDBKJRN0uMwhuN68KRfdSROO
OdKPpyCLaHvGWrRCMWJOHLc52Wy6jeXwuJAfEXl9rrzNUUxavDqEKE5wXqKMwqQb
4tH34pK+aHAnSZ1JmYDNqwUcoqHFvXcdS8ZGXUwTQ19YCPNiR8rO1j2T6FpyRZNk
ak7J0GV2X5kJSIpYHpYgN92faxKSdPs6xUyiwDoLSVh4P34cJBcop3VJ6Ca22H3a
xSS6LUqfqT372qWr2PUKkMtOCzo0gE0pq/Rc9VYW8ELWSp4uYA4Q0/KLDaAWqD6B
Z3Hz4gEXuy5JGv26gvV9P1wKzVnwiHglObKGo7GdovXkddH8CbsEzqxA8kIyezEJ
nbln5pzyhDRCxAkRCFVapPzpWddl9AZfi+bngEEFWfXnlEgIpttFydj17wIDAQAB
o4IBEzCCAQ8wDgYDVR0PAQH/BAQDAgEGMBIGA1UdEwEB/wQIMAYBAf8CAQAwHQYD
VR0OBBYEFJaXpVh+/cXLkblBIsloLk6ghTfDMB8GA1UdIwQYMBaAFF8XnrM9fDTA
oZtzmdo8NER0V4AWMFkGCCsGAQUFBwEBBE0wSzBJBggrBgEFBQcwAoY9aHR0cHM6
Ly9lbGJvc3NvLmdpdGh1Yi5pby94NTA5Ly9EYW1hMTFfSW50ZXJtZWRpYXJ5X0NB
LWNhLmNydDBOBgNVHR8ERzBFMEOgQaA/hj1odHRwczovL2VsYm9zc28uZ2l0aHVi
LmlvL3g1MDkvL0RhbWExMV9JbnRlcm1lZGlhcnlfQ0EtY2EuY3JsMA0GCSqGSIb3
DQEBDQUAA4ICAQAL7eHm2Myv3ggUHSXn0pO2qSVBdiSGsTOX5WbO857WCpGQv+Tx
6oL6Mjxtatm/6jo8zPovWmgeWGsxr/6w0vmofGwpyV3eYsWCWyLMF/nMxBp5dkn8
xiy6Yw9S/D5dXn5UIz7W0a4rchQALhdhsMZtMvVEaYtlbuE4732MB+pUfTkec+0n
dxOhuuVezWI5xBtdpKaGB82Im94LxsJHAmMSG9dGLou3Q0gNNP0auo0agk+rggBQ
1rrxPJA/FuF1lvqa9oSSM/T2LFe3RWJeIk/kpdSEKaLr/1sVb6fvEdAKX7duUOTJ
pQcTmB2fH7rF3kdpwgx5sjj2a7Wo5WVjaB1fkes7oNFyIKYsRQsAbus9x+8ABnb+
3D23qZ/9VgRMIyqoJljjp8JImELgS/hfcDC213SrhV2a/oPVexvkdTfJVgUxwX2G
lLwiRb/OihxqNl1NAqoyOxKE63sKOTCltps2YtTIvf4KmeqzAhRL01QnxcDWQzMl
5e/vyNoaFoM9dhzuObvZAjKfs1RcPDvsfmqqEY5yswAro5n1S4F1XVZymkulH3ZN
vSzF3y9KdQ5hXvK40lIqbkKS8BAuVuiEpfjVFFRFOrirFWUg2482G0z9F3iJMQe9
PcLTfMAMFMR4XUgIwZt8i4TExYP59/8j9ccIdaPNegIA5qA6v/olaQIbEA==
-----END CERTIFICATE-----
