Certificate:
    Data:
        Version: 3 (0x2)
        Serial Number: 5 (0x5)
        Signature Algorithm: sha512WithRSAEncryption
        Issuer: C=DE, O=Damaschkestr. 11, OU=Arbeitszimmer, CN=Dama11 Lab Root CA
        Validity
            Not Before: Dec  9 11:42:25 2022 GMT
            Not After : Dec  9 23:59:59 2025 GMT
        Subject: C=DE, O=Damaschkestr. 11, OU=Arbeitszimmer, CN=Dama11 Lab External Party Root CA
        Subject Public Key Info:
            Public Key Algorithm: rsaEncryption
                RSA Public-Key: (4096 bit)
                Modulus:
                    00:e3:da:00:06:4c:82:af:ff:ac:f9:3c:14:57:0c:
                    0a:48:2e:68:21:25:03:84:be:bd:53:fc:eb:2a:4f:
                    31:5f:87:5d:62:48:8f:22:d1:40:70:d1:c9:33:95:
                    86:17:4e:76:e4:0b:05:94:ee:05:95:6b:34:0b:f5:
                    6c:6b:cd:38:e6:8e:8e:f3:ba:46:99:de:1e:5b:61:
                    eb:70:61:71:a5:d0:0d:85:0b:33:8c:ed:3e:2d:8a:
                    c0:04:fd:e0:28:25:56:a2:19:f3:f8:f7:4d:4c:82:
                    56:8b:4d:74:4d:8f:2a:05:c1:ae:15:53:d0:20:d4:
                    ae:19:c0:0d:5d:c3:0a:3f:19:1d:d2:9e:78:31:1a:
                    10:f5:4a:53:a4:41:42:e8:17:42:44:f8:b4:2b:32:
                    1c:98:06:b5:58:52:a8:06:03:30:bb:1d:5a:90:88:
                    76:82:a7:fc:26:58:47:39:f1:95:79:57:5b:2e:9b:
                    7c:d4:0f:e5:25:9a:2b:ca:49:20:87:9d:63:e0:b4:
                    92:7c:75:b9:3c:0f:40:ad:41:19:62:5b:30:89:bc:
                    22:5a:7c:5d:dc:42:d2:07:4f:19:a7:e5:8f:51:de:
                    a6:28:05:ab:97:96:fd:63:a7:73:ff:66:d8:1e:a5:
                    56:7d:c2:86:1d:0b:97:2d:ea:af:9e:eb:33:a2:1f:
                    52:92:dc:f9:2c:4b:de:2a:51:b0:38:70:a1:59:65:
                    5b:20:16:d2:76:08:19:ae:74:8b:f8:87:f7:90:ac:
                    23:c9:65:2f:93:e5:1b:bb:f4:ec:43:7d:6c:9e:da:
                    3c:f4:a2:9b:2b:db:61:0a:8b:7b:cf:56:ee:0e:63:
                    82:b7:00:aa:0d:6b:a3:73:f5:6b:e9:32:c6:ad:8c:
                    9a:00:0e:59:07:ea:31:72:ba:10:fa:cf:51:b5:bd:
                    c3:44:a5:49:25:e6:57:6a:c4:3d:be:6c:1f:d2:39:
                    24:f5:98:f9:33:4a:90:08:6b:85:da:40:36:79:01:
                    ef:11:29:14:df:f0:6e:26:df:55:1f:aa:c1:e1:99:
                    18:c1:52:aa:b7:e2:88:ae:f3:59:9a:0a:d3:0d:ea:
                    ad:4e:68:cb:33:8d:02:2f:f4:85:64:cd:18:94:9f:
                    0f:98:73:69:f4:1d:2d:c2:09:04:89:17:02:fb:e1:
                    bf:bc:ee:74:52:71:94:c4:ba:77:f4:d1:9e:18:57:
                    ca:46:68:ff:eb:39:e4:27:a7:2a:24:93:9b:8a:0c:
                    87:a2:31:bf:57:f7:b6:08:97:bc:8d:bc:f6:2d:2b:
                    3c:95:c3:f5:dc:b4:e8:df:c6:fc:13:b1:23:1d:cd:
                    ce:eb:61:67:94:c5:1a:b6:fc:56:f4:4c:82:4d:14:
                    1f:9e:73
                Exponent: 65537 (0x10001)
        X509v3 extensions:
            X509v3 Key Usage: critical
                Certificate Sign, CRL Sign
            X509v3 Basic Constraints: critical
                CA:TRUE
            X509v3 Subject Key Identifier: 
                5E:95:AC:02:31:FA:5D:9B:AB:F6:4C:76:E5:E0:FE:F9:EA:E5:37:FC
            X509v3 Authority Key Identifier: 
                keyid:01:B2:2D:56:3C:87:7F:A8:5F:61:BC:58:01:BF:1E:FD:4A:CA:CA:8D

            Authority Information Access: 
                CA Issuers - URI:https://elbosso.github.io/x509//Dama11_Root_CA-ca.crt

            X509v3 CRL Distribution Points: 

                Full Name:
                  URI:https://elbosso.github.io/x509//Dama11_Root_CA-ca.crl

    Signature Algorithm: sha512WithRSAEncryption
         b7:78:dd:2e:22:8a:8b:5d:3b:6c:6a:a3:0e:5c:d0:6d:4e:70:
         8e:88:73:b3:45:97:85:92:7f:64:65:c8:74:9f:3f:50:7a:ed:
         70:02:6a:7e:5f:ad:b5:bc:7b:eb:6c:30:eb:0e:8d:98:bd:43:
         54:f4:ed:82:1b:2c:ad:77:a1:1c:66:cd:c6:a7:7f:b1:0f:d6:
         c7:4c:fe:ba:0f:37:14:91:b6:5d:5c:c2:22:04:b4:2e:13:93:
         59:76:79:4d:ce:78:9d:bf:4f:9e:c2:1a:5f:3a:c1:d9:4c:71:
         7c:d4:5b:4f:d1:21:9a:f2:26:9d:62:a5:23:a7:4a:0f:01:2d:
         dc:64:aa:fe:5a:71:d3:1e:d7:4f:75:04:6a:b8:a4:5b:56:b0:
         98:a7:4a:33:98:12:6c:f0:77:54:06:4d:39:6b:6b:92:9d:53:
         4b:0d:f5:30:88:9a:df:ee:47:15:a9:4c:12:0f:1b:c7:a4:b4:
         0e:e8:c5:81:01:d2:92:b8:dc:58:55:92:36:7d:92:23:24:e9:
         29:d1:f2:ae:d7:7d:63:03:56:3d:71:03:bb:97:70:fe:0c:34:
         40:35:f5:0e:4c:65:b0:63:68:9e:d5:79:6a:1c:be:48:50:f4:
         35:bb:84:1e:95:7b:28:cf:ab:09:fb:58:85:cc:ac:98:d0:23:
         a9:b8:fd:f5:94:d8:c5:a1:0f:bb:85:7b:46:bb:45:00:b2:a3:
         5a:e4:72:43:c1:50:eb:39:9f:dd:15:87:1b:62:a3:ac:d4:e4:
         1d:6b:82:f1:01:a9:07:7c:e5:22:22:cc:3e:6d:0b:29:c8:29:
         1f:87:42:39:d5:30:1e:f0:be:f8:4e:7c:36:fe:7f:bf:66:1c:
         31:ff:3a:13:23:e6:0f:19:06:3a:ec:d8:de:25:13:f6:db:b4:
         25:e4:44:99:14:60:7c:ee:5a:4b:fb:55:86:4a:41:fc:ee:6b:
         01:ad:94:b9:8d:68:8e:d9:bd:1f:46:b1:b6:d3:04:28:bb:1c:
         4b:83:86:86:7c:b6:6f:71:7c:18:f1:ae:05:a2:a1:fa:7e:aa:
         d6:90:89:2b:4d:c6:48:31:f0:8e:73:dd:82:b5:aa:e3:1a:9a:
         8e:27:f7:f2:30:4b:e7:23:58:f9:b3:2e:6d:f8:05:14:11:16:
         dc:7f:01:bd:ce:7e:26:20:2a:cd:26:37:33:95:94:ef:bf:9d:
         ad:1c:02:38:91:96:54:fc:05:04:06:5d:f5:1b:0d:e9:79:ce:
         49:50:0a:a4:88:c7:2e:89:e2:ec:3e:a9:5f:5d:bd:f7:3b:d7:
         65:6b:4d:50:b4:4e:ce:a5:fc:80:65:f2:ed:9d:40:06:bf:3c:
         a2:67:86:55:65:09:3f:df
-----BEGIN CERTIFICATE-----
MIIGRDCCBCygAwIBAgIBBTANBgkqhkiG9w0BAQ0FADBdMQswCQYDVQQGEwJERTEZ
MBcGA1UECgwQRGFtYXNjaGtlc3RyLiAxMTEWMBQGA1UECwwNQXJiZWl0c3ppbW1l
cjEbMBkGA1UEAwwSRGFtYTExIExhYiBSb290IENBMB4XDTIyMTIwOTExNDIyNVoX
DTI1MTIwOTIzNTk1OVowbDELMAkGA1UEBhMCREUxGTAXBgNVBAoMEERhbWFzY2hr
ZXN0ci4gMTExFjAUBgNVBAsMDUFyYmVpdHN6aW1tZXIxKjAoBgNVBAMMIURhbWEx
MSBMYWIgRXh0ZXJuYWwgUGFydHkgUm9vdCBDQTCCAiIwDQYJKoZIhvcNAQEBBQAD
ggIPADCCAgoCggIBAOPaAAZMgq//rPk8FFcMCkguaCElA4S+vVP86ypPMV+HXWJI
jyLRQHDRyTOVhhdOduQLBZTuBZVrNAv1bGvNOOaOjvO6RpneHlth63BhcaXQDYUL
M4ztPi2KwAT94CglVqIZ8/j3TUyCVotNdE2PKgXBrhVT0CDUrhnADV3DCj8ZHdKe
eDEaEPVKU6RBQugXQkT4tCsyHJgGtVhSqAYDMLsdWpCIdoKn/CZYRznxlXlXWy6b
fNQP5SWaK8pJIIedY+C0knx1uTwPQK1BGWJbMIm8Ilp8XdxC0gdPGaflj1HepigF
q5eW/WOnc/9m2B6lVn3Chh0Lly3qr57rM6IfUpLc+SxL3ipRsDhwoVllWyAW0nYI
Ga50i/iH95CsI8llL5PlG7v07EN9bJ7aPPSimyvbYQqLe89W7g5jgrcAqg1ro3P1
a+kyxq2MmgAOWQfqMXK6EPrPUbW9w0SlSSXmV2rEPb5sH9I5JPWY+TNKkAhrhdpA
NnkB7xEpFN/wbibfVR+qweGZGMFSqrfiiK7zWZoK0w3qrU5oyzONAi/0hWTNGJSf
D5hzafQdLcIJBIkXAvvhv7zudFJxlMS6d/TRnhhXykZo/+s55CenKiSTm4oMh6Ix
v1f3tgiXvI289i0rPJXD9dy06N/G/BOxIx3NzuthZ5TFGrb8VvRMgk0UH55zAgMB
AAGjgf8wgfwwDgYDVR0PAQH/BAQDAgEGMA8GA1UdEwEB/wQFMAMBAf8wHQYDVR0O
BBYEFF6VrAIx+l2bq/ZMduXg/vnq5Tf8MB8GA1UdIwQYMBaAFAGyLVY8h3+oX2G8
WAG/Hv1KysqNMFEGCCsGAQUFBwEBBEUwQzBBBggrBgEFBQcwAoY1aHR0cHM6Ly9l
bGJvc3NvLmdpdGh1Yi5pby94NTA5Ly9EYW1hMTFfUm9vdF9DQS1jYS5jcnQwRgYD
VR0fBD8wPTA7oDmgN4Y1aHR0cHM6Ly9lbGJvc3NvLmdpdGh1Yi5pby94NTA5Ly9E
YW1hMTFfUm9vdF9DQS1jYS5jcmwwDQYJKoZIhvcNAQENBQADggIBALd43S4iiotd
O2xqow5c0G1OcI6Ic7NFl4WSf2RlyHSfP1B67XACan5frbW8e+tsMOsOjZi9Q1T0
7YIbLK13oRxmzcanf7EP1sdM/roPNxSRtl1cwiIEtC4Tk1l2eU3OeJ2/T57CGl86
wdlMcXzUW0/RIZryJp1ipSOnSg8BLdxkqv5acdMe1091BGq4pFtWsJinSjOYEmzw
d1QGTTlra5KdU0sN9TCImt/uRxWpTBIPG8ektA7oxYEB0pK43FhVkjZ9kiMk6SnR
8q7XfWMDVj1xA7uXcP4MNEA19Q5MZbBjaJ7VeWocvkhQ9DW7hB6VeyjPqwn7WIXM
rJjQI6m4/fWU2MWhD7uFe0a7RQCyo1rkckPBUOs5n90Vhxtio6zU5B1rgvEBqQd8
5SIizD5tCynIKR+HQjnVMB7wvvhOfDb+f79mHDH/OhMj5g8ZBjrs2N4lE/bbtCXk
RJkUYHzuWkv7VYZKQfzuawGtlLmNaI7ZvR9GsbbTBCi7HEuDhoZ8tm9xfBjxrgWi
ofp+qtaQiStNxkgx8I5z3YK1quMamo4n9/IwS+cjWPmzLm34BRQRFtx/Ab3OfiYg
Ks0mNzOVlO+/na0cAjiRllT8BQQGXfUbDel5zklQCqSIxy6J4uw+qV9dvfc712Vr
TVC0Ts6l/IBl8u2dQAa/PKJnhlVlCT/f
-----END CERTIFICATE-----
