Certificate:
    Data:
        Version: 3 (0x2)
        Serial Number: 4 (0x4)
        Signature Algorithm: sha512WithRSAEncryption
        Issuer: C=DE, O=Damaschkestr. 11, OU=Arbeitszimmer, CN=Dama11 Lab Intermediary CA
        Validity
            Not Before: Nov  1 14:36:05 2019 GMT
            Not After : Nov 30 23:59:59 2025 GMT
        Subject: C=DE, O=Damaschkestr. 11, OU=Arbeitszimmer, CN=Dama 11 Lab Software CA
        Subject Public Key Info:
            Public Key Algorithm: rsaEncryption
                RSA Public-Key: (4096 bit)
                Modulus:
                    00:e6:0b:98:42:53:75:ba:24:11:a4:88:08:25:9d:
                    36:05:69:61:15:5f:a8:c8:27:df:31:94:f2:c9:f6:
                    09:a8:ce:18:0d:39:bb:a3:0c:07:48:ca:c3:c5:67:
                    e8:30:fb:bb:15:73:20:a4:f1:5f:44:2d:6e:db:47:
                    0a:83:ab:74:b4:66:02:cf:44:62:af:2f:43:c9:ab:
                    eb:40:b5:76:e1:7c:63:80:5c:57:ab:f9:0d:b5:a5:
                    ef:c9:df:eb:11:4d:d0:bd:69:9e:14:93:90:22:32:
                    53:0d:3c:d1:97:24:30:45:0b:5d:47:06:d6:ec:40:
                    e1:4c:0a:62:59:64:7a:23:b4:48:f3:db:b8:7c:f0:
                    87:c3:4a:52:da:20:a8:4b:48:49:54:c7:4f:38:fc:
                    69:d4:61:ed:1e:ef:9b:81:cd:5a:7c:f0:43:83:f0:
                    4a:27:44:78:ac:16:6a:a2:4e:fe:36:e9:af:a4:27:
                    e4:86:ff:3d:04:df:1f:00:e9:35:ca:f7:21:95:ce:
                    ac:91:4a:e8:c3:8a:b5:3f:d1:6d:f3:1c:4a:fd:52:
                    06:79:70:30:4a:25:13:74:b8:cc:21:b8:de:bc:29:
                    17:dd:49:13:8e:39:d2:8f:a7:20:8b:68:7b:c6:5a:
                    b4:42:31:62:4e:1c:b7:39:d9:6c:ba:8d:e5:f0:b8:
                    90:1f:11:79:7d:ae:bc:cd:51:4c:5a:bc:3a:84:28:
                    4e:70:5e:a2:8c:c2:a4:1b:e2:d1:f7:e2:92:be:68:
                    70:27:49:9d:49:99:80:cd:ab:05:1c:a2:a1:c5:bd:
                    77:1d:4b:c6:46:5d:4c:13:43:5f:58:08:f3:62:47:
                    ca:ce:d6:3d:93:e8:5a:72:45:93:64:6a:4e:c9:d0:
                    65:76:5f:99:09:48:8a:58:1e:96:20:37:dd:9f:6b:
                    12:92:74:fb:3a:c5:4c:a2:c0:3a:0b:49:58:78:3f:
                    7e:1c:24:17:28:a7:75:49:e8:26:b6:d8:7d:da:c5:
                    24:ba:2d:4a:9f:a9:3d:fb:da:a5:ab:d8:f5:0a:90:
                    cb:4e:0b:3a:34:80:4d:29:ab:f4:5c:f5:56:16:f0:
                    42:d6:4a:9e:2e:60:0e:10:d3:f2:8b:0d:a0:16:a8:
                    3e:81:67:71:f3:e2:01:17:bb:2e:49:1a:fd:ba:82:
                    f5:7d:3f:5c:0a:cd:59:f0:88:78:25:39:b2:86:a3:
                    b1:9d:a2:f5:e4:75:d1:fc:09:bb:04:ce:ac:40:f2:
                    42:32:7b:31:09:9d:b9:67:e6:9c:f2:84:34:42:c4:
                    09:11:08:55:5a:a4:fc:e9:59:d7:65:f4:06:5f:8b:
                    e6:e7:80:41:05:59:f5:e7:94:48:08:a6:db:45:c9:
                    d8:f5:ef
                Exponent: 65537 (0x10001)
        X509v3 extensions:
            X509v3 Key Usage: critical
                Certificate Sign, CRL Sign
            X509v3 Basic Constraints: critical
                CA:TRUE, pathlen:0
            X509v3 Subject Key Identifier: 
                96:97:A5:58:7E:FD:C5:CB:91:B9:41:22:C9:68:2E:4E:A0:85:37:C3
            X509v3 Authority Key Identifier: 
                keyid:5F:17:9E:B3:3D:7C:34:C0:A1:9B:73:99:DA:3C:34:44:74:57:80:16

            Authority Information Access: 
                CA Issuers - URI:https://elbosso.github.io/x509//Dama11_Intermediary_CA-ca.crt

            X509v3 CRL Distribution Points: 

                Full Name:
                  URI:https://elbosso.github.io/x509//Dama11_Intermediary_CA-ca.crl

    Signature Algorithm: sha512WithRSAEncryption
         2a:ed:47:91:de:3f:0e:ce:db:aa:49:08:f7:6b:d3:00:fa:8e:
         cd:61:e1:ef:5e:6d:1b:7f:9a:b5:35:a8:3d:b5:dd:53:d1:38:
         e8:ad:d2:29:24:71:57:c9:d6:95:21:38:b6:5b:82:5c:06:f9:
         98:02:88:ec:8a:d3:2d:4a:8b:61:a2:62:62:e7:5c:87:71:1b:
         15:6b:51:d8:70:48:05:6e:0e:38:8d:69:b7:64:bc:2c:5d:68:
         2c:e4:7b:97:31:c1:fe:e1:40:9e:c3:7f:f5:13:21:90:75:c2:
         22:e7:aa:21:91:03:38:fe:57:80:87:19:36:f6:9f:3b:d9:08:
         13:89:ac:47:dd:f1:77:cc:6a:aa:3e:43:17:f8:e9:38:f3:c9:
         c7:30:0b:09:a2:28:1f:b3:5e:e5:f5:f6:55:a8:20:b1:8b:d1:
         16:c6:df:07:4a:6a:f8:18:86:c8:1a:1e:fe:38:92:19:8b:87:
         a2:34:18:80:45:47:cd:cb:48:3c:8d:c7:78:b6:b1:f6:38:9d:
         74:64:71:2c:fc:08:e9:a9:bf:e9:0d:02:78:03:e1:2a:3d:63:
         a8:c1:d2:87:6d:3f:f9:0f:bf:e8:7c:ac:de:f3:da:f8:2a:2d:
         cc:e0:24:77:34:31:e2:7a:bd:0a:f7:af:5c:ea:56:ba:ad:8f:
         ae:46:a5:a3:8c:02:88:eb:4e:13:cc:5f:43:24:0d:b5:1d:4e:
         f5:1a:c9:64:a6:8e:64:38:04:f9:f6:e4:9e:df:68:24:db:69:
         e3:81:e1:00:a1:ce:24:27:31:4d:14:11:5c:ba:bc:e2:ce:4a:
         5a:12:63:b8:1b:05:fd:05:c6:1e:3d:d9:85:01:96:aa:dc:e0:
         58:df:75:c9:ee:d3:9d:06:16:2e:be:d1:89:d8:4f:4c:e8:a3:
         f3:56:f4:fe:bc:54:82:29:8f:68:81:17:fd:11:b7:78:7e:b9:
         98:9f:ed:47:bd:2c:67:02:d5:3d:19:e5:16:f0:f3:33:20:61:
         4d:1a:6d:05:f7:21:a0:f8:01:d9:88:89:06:46:74:c8:69:c4:
         7d:89:6a:ff:7d:e9:0f:f6:fc:ce:46:01:d0:32:22:a2:e9:1e:
         14:b4:3a:a2:07:7e:28:e8:15:c3:cc:9d:21:d1:9d:9d:81:cb:
         2e:eb:e6:50:a3:e8:0e:bc:fa:ed:a7:b2:b0:b3:b2:d4:ea:64:
         32:8c:c3:b4:ca:4f:77:70:b8:8a:ee:7b:a2:31:d5:9c:2e:4c:
         78:00:ab:26:80:11:03:55:f7:0e:87:ed:b9:14:ab:5d:96:cd:
         49:c2:7a:a9:7d:c6:06:09:03:52:40:76:3d:e4:6e:53:9a:a2:
         42:42:d5:e5:58:c8:78:aa
-----BEGIN CERTIFICATE-----
MIIGVzCCBD+gAwIBAgIBBDANBgkqhkiG9w0BAQ0FADBlMQswCQYDVQQGEwJERTEZ
MBcGA1UECgwQRGFtYXNjaGtlc3RyLiAxMTEWMBQGA1UECwwNQXJiZWl0c3ppbW1l
cjEjMCEGA1UEAwwaRGFtYTExIExhYiBJbnRlcm1lZGlhcnkgQ0EwHhcNMTkxMTAx
MTQzNjA1WhcNMjUxMTMwMjM1OTU5WjBiMQswCQYDVQQGEwJERTEZMBcGA1UECgwQ
RGFtYXNjaGtlc3RyLiAxMTEWMBQGA1UECwwNQXJiZWl0c3ppbW1lcjEgMB4GA1UE
AwwXRGFtYSAxMSBMYWIgU29mdHdhcmUgQ0EwggIiMA0GCSqGSIb3DQEBAQUAA4IC
DwAwggIKAoICAQDmC5hCU3W6JBGkiAglnTYFaWEVX6jIJ98xlPLJ9gmozhgNObuj
DAdIysPFZ+gw+7sVcyCk8V9ELW7bRwqDq3S0ZgLPRGKvL0PJq+tAtXbhfGOAXFer
+Q21pe/J3+sRTdC9aZ4Uk5AiMlMNPNGXJDBFC11HBtbsQOFMCmJZZHojtEjz27h8
8IfDSlLaIKhLSElUx084/GnUYe0e75uBzVp88EOD8EonRHisFmqiTv426a+kJ+SG
/z0E3x8A6TXK9yGVzqyRSujDirU/0W3zHEr9UgZ5cDBKJRN0uMwhuN68KRfdSROO
OdKPpyCLaHvGWrRCMWJOHLc52Wy6jeXwuJAfEXl9rrzNUUxavDqEKE5wXqKMwqQb
4tH34pK+aHAnSZ1JmYDNqwUcoqHFvXcdS8ZGXUwTQ19YCPNiR8rO1j2T6FpyRZNk
ak7J0GV2X5kJSIpYHpYgN92faxKSdPs6xUyiwDoLSVh4P34cJBcop3VJ6Ca22H3a
xSS6LUqfqT372qWr2PUKkMtOCzo0gE0pq/Rc9VYW8ELWSp4uYA4Q0/KLDaAWqD6B
Z3Hz4gEXuy5JGv26gvV9P1wKzVnwiHglObKGo7GdovXkddH8CbsEzqxA8kIyezEJ
nbln5pzyhDRCxAkRCFVapPzpWddl9AZfi+bngEEFWfXnlEgIpttFydj17wIDAQAB
o4IBEzCCAQ8wDgYDVR0PAQH/BAQDAgEGMBIGA1UdEwEB/wQIMAYBAf8CAQAwHQYD
VR0OBBYEFJaXpVh+/cXLkblBIsloLk6ghTfDMB8GA1UdIwQYMBaAFF8XnrM9fDTA
oZtzmdo8NER0V4AWMFkGCCsGAQUFBwEBBE0wSzBJBggrBgEFBQcwAoY9aHR0cHM6
Ly9lbGJvc3NvLmdpdGh1Yi5pby94NTA5Ly9EYW1hMTFfSW50ZXJtZWRpYXJ5X0NB
LWNhLmNydDBOBgNVHR8ERzBFMEOgQaA/hj1odHRwczovL2VsYm9zc28uZ2l0aHVi
LmlvL3g1MDkvL0RhbWExMV9JbnRlcm1lZGlhcnlfQ0EtY2EuY3JsMA0GCSqGSIb3
DQEBDQUAA4ICAQAq7UeR3j8OztuqSQj3a9MA+o7NYeHvXm0bf5q1Nag9td1T0Tjo
rdIpJHFXydaVITi2W4JcBvmYAojsitMtSothomJi51yHcRsVa1HYcEgFbg44jWm3
ZLwsXWgs5HuXMcH+4UCew3/1EyGQdcIi56ohkQM4/leAhxk29p872QgTiaxH3fF3
zGqqPkMX+Ok488nHMAsJoigfs17l9fZVqCCxi9EWxt8HSmr4GIbIGh7+OJIZi4ei
NBiARUfNy0g8jcd4trH2OJ10ZHEs/Ajpqb/pDQJ4A+EqPWOowdKHbT/5D7/ofKze
89r4Ki3M4CR3NDHier0K969c6la6rY+uRqWjjAKI604TzF9DJA21HU71Gslkpo5k
OAT59uSe32gk22njgeEAoc4kJzFNFBFcurzizkpaEmO4GwX9BcYePdmFAZaq3OBY
33XJ7tOdBhYuvtGJ2E9M6KPzVvT+vFSCKY9ogRf9Ebd4frmYn+1HvSxnAtU9GeUW
8PMzIGFNGm0F9yGg+AHZiIkGRnTIacR9iWr/fekP9vzORgHQMiKi6R4UtDqiB34o
6BXDzJ0h0Z2dgcsu6+ZQo+gOvPrtp7Kws7LU6mQyjMO0yk93cLiK7nuiMdWcLkx4
AKsmgBEDVfcOh+25FKtdls1JwnqpfcYGCQNSQHY95G5TmqJCQtXlWMh4qg==
-----END CERTIFICATE-----
