Certificate:
    Data:
        Version: 3 (0x2)
        Serial Number: 3 (0x3)
        Signature Algorithm: sha512WithRSAEncryption
        Issuer: C=DE, O=Damaschkestr. 11, OU=Arbeitszimmer, CN=Dama11 Lab Root CA
        Validity
            Not Before: Oct 27 12:04:50 2019 GMT
            Not After : Dec 31 23:59:59 2025 GMT
        Subject: C=DE, O=Damaschkestr. 11, OU=Arbeitszimmer, CN=Dama11 Lab Intermediary Test CA
        Subject Public Key Info:
            Public Key Algorithm: rsaEncryption
                RSA Public-Key: (4096 bit)
                Modulus:
                    00:b5:af:de:98:e2:95:20:d0:d5:b1:5f:38:a4:9f:
                    0f:de:c8:79:77:55:36:b2:ca:ac:62:19:e8:ab:f6:
                    9d:01:c1:39:96:ec:96:7b:c7:3b:45:81:d2:67:d5:
                    65:f6:75:70:88:44:77:57:ad:c8:74:b5:43:9f:ca:
                    9b:3d:ac:f7:1e:52:10:2e:a8:f8:cc:39:57:52:a5:
                    af:7a:19:49:fd:03:0c:17:4c:c0:c6:97:9c:3b:0c:
                    35:32:af:16:07:f4:4a:e2:d2:42:ff:a2:8e:3c:f5:
                    02:7f:87:3a:7f:52:23:be:0c:ee:98:2b:ab:bd:bd:
                    e0:ad:88:61:1d:d6:40:bf:10:17:3b:ef:69:45:16:
                    c4:65:8b:8e:b6:e7:36:7f:75:6c:64:25:b1:b8:f7:
                    42:b4:3c:cb:58:f0:18:ec:97:a3:9b:35:ea:bd:03:
                    11:d8:3a:80:ad:ad:ba:95:9c:3c:0e:2a:16:3b:81:
                    1c:fb:74:21:5d:15:30:5f:3c:f8:66:32:85:e3:b3:
                    37:7c:af:48:11:1f:1b:73:59:9e:bd:bf:af:41:a3:
                    d2:28:c1:67:f5:b4:7e:6e:34:45:f3:4e:49:f9:c0:
                    23:bb:21:06:d1:d3:e9:c9:f9:af:59:ae:7e:45:c0:
                    91:d1:ce:e3:5f:e8:af:51:80:c4:4e:6b:52:38:6d:
                    94:c8:f5:c1:bc:a4:1c:ee:43:63:ce:61:bc:c9:37:
                    47:d8:bf:01:1c:38:31:c1:50:cd:92:0e:3e:88:7d:
                    5b:bc:0f:bd:26:18:0f:fc:39:67:f2:61:eb:4e:c7:
                    f6:52:8b:a4:8b:60:bf:1a:9e:dd:46:d2:02:da:93:
                    5f:47:6f:c7:2e:f3:84:99:87:2b:1e:15:86:1a:84:
                    39:6f:b3:d7:0b:08:1b:85:72:16:4f:e2:fa:0b:05:
                    2f:72:e5:fe:64:1c:99:7c:bc:2d:52:ff:da:ad:29:
                    a7:c7:74:c0:18:0f:65:d4:e4:f4:5f:82:05:89:b9:
                    af:b2:b8:5b:4d:e8:52:58:8d:39:15:31:90:ab:12:
                    02:54:47:17:23:39:2c:7c:12:9e:f1:ef:6d:69:cb:
                    1d:e9:31:81:70:74:f3:7c:b0:08:6a:37:4f:41:bf:
                    d7:2b:6f:9b:36:0c:79:a0:3a:17:6c:2d:47:1c:3f:
                    9f:cd:80:70:c1:aa:86:56:70:2e:5d:64:ab:a1:a4:
                    0b:9b:eb:11:e9:1c:5a:a5:db:36:9d:5e:13:df:e3:
                    5c:d0:07:f6:8e:20:58:0f:24:77:0b:d5:73:74:e5:
                    de:dd:02:f4:14:ac:8e:c6:69:e0:ee:c4:11:d4:03:
                    a2:4d:40:3c:7d:78:89:49:93:3b:34:82:4d:a7:cc:
                    0a:7c:47
                Exponent: 65537 (0x10001)
        X509v3 extensions:
            X509v3 Key Usage: critical
                Certificate Sign, CRL Sign
            X509v3 Basic Constraints: critical
                CA:TRUE
            X509v3 Subject Key Identifier: 
                E8:9A:25:D6:31:41:C2:C7:43:10:47:DA:64:E7:69:4A:C3:F3:4B:27
            X509v3 Authority Key Identifier: 
                keyid:01:B2:2D:56:3C:87:7F:A8:5F:61:BC:58:01:BF:1E:FD:4A:CA:CA:8D

            Authority Information Access: 
                CA Issuers - URI:https://elbosso.github.io/x509//Dama11_Root_CA-ca.crt

            X509v3 CRL Distribution Points: 

                Full Name:
                  URI:https://elbosso.github.io/x509//Dama11_Root_CA-ca.crl

    Signature Algorithm: sha512WithRSAEncryption
         08:5e:dd:6f:c8:d2:8a:b2:2b:8d:2e:d7:6f:7d:4f:02:9e:07:
         93:18:b2:cb:62:4a:f9:84:2d:02:13:92:25:5d:b1:5a:23:1f:
         6a:2d:d3:32:d5:6b:5e:e5:b4:71:52:b9:62:29:3d:cf:ac:78:
         5c:d8:a9:a3:00:0b:65:02:36:da:ef:86:dd:f9:9b:d3:ee:5d:
         b9:da:86:ca:40:b7:9b:c8:28:2b:03:a2:10:7c:25:3d:32:ee:
         50:01:64:91:af:87:f2:bd:db:b2:0e:d1:aa:00:93:af:90:d2:
         50:a9:51:be:60:f7:3c:4a:68:bd:78:9f:6f:94:a0:b3:30:81:
         2e:37:93:d8:f7:7e:a5:11:66:82:ae:4e:b5:66:37:e8:89:3d:
         e1:71:e5:09:26:e0:4d:3f:a8:12:72:71:87:35:8f:ed:63:b5:
         61:fb:06:b3:6e:c6:d8:4e:55:d9:ee:2c:da:33:bb:ff:8a:41:
         94:17:51:2f:c4:ba:12:86:a6:7b:21:e7:27:a9:ce:c2:d5:3d:
         8d:80:16:4b:5c:91:eb:9e:30:ea:a8:a0:ec:b0:1c:79:53:e4:
         33:4e:60:3d:05:a2:8c:52:c8:cb:5b:2f:4f:2f:ba:48:6a:2a:
         d0:7f:c0:85:0b:67:b4:00:84:96:00:f6:0c:02:97:39:1b:cd:
         69:0c:45:95:a8:da:37:78:77:7d:f8:ee:53:4f:a1:8d:27:6c:
         e3:4d:45:96:6e:18:fc:32:1d:10:3c:c1:00:b7:3a:ce:dc:52:
         95:94:0c:f9:bf:c2:98:04:51:f8:1f:17:ed:d2:77:11:04:50:
         d5:2f:cf:66:ed:30:f7:ab:dc:a5:a5:b0:8f:d0:4f:46:18:44:
         f7:0b:4f:2f:85:69:58:f4:62:d6:a3:95:3e:53:88:f7:15:63:
         19:5f:c6:0a:17:f5:39:f3:9f:2d:c4:3a:d9:67:f0:0f:09:92:
         f7:c5:81:93:d3:a8:93:ed:d0:4c:41:4c:27:2e:fc:1f:f4:dc:
         77:51:32:ad:c5:8f:0d:a6:5b:fd:c0:64:a7:5a:87:5a:09:a2:
         29:61:66:22:d4:94:53:1c:41:dd:ac:9b:84:93:2c:7e:f8:bd:
         15:af:22:43:7c:dd:56:ab:13:f9:6c:04:f3:64:6b:11:29:a2:
         eb:2d:3e:29:d4:ad:28:e1:d6:65:f4:9a:ce:60:aa:d6:cc:9b:
         52:8e:66:b2:f3:24:c1:ef:22:44:9a:04:3b:41:54:db:04:01:
         d4:0e:66:08:2f:d3:79:a4:87:b5:ce:37:58:94:6d:d9:e7:2c:
         c5:a6:af:86:12:d1:45:9a:5a:32:31:e0:e4:97:aa:b9:98:a8:
         17:8b:d4:07:2e:f1:fb:36
-----BEGIN CERTIFICATE-----
MIIGQjCCBCqgAwIBAgIBAzANBgkqhkiG9w0BAQ0FADBdMQswCQYDVQQGEwJERTEZ
MBcGA1UECgwQRGFtYXNjaGtlc3RyLiAxMTEWMBQGA1UECwwNQXJiZWl0c3ppbW1l
cjEbMBkGA1UEAwwSRGFtYTExIExhYiBSb290IENBMB4XDTE5MTAyNzEyMDQ1MFoX
DTI1MTIzMTIzNTk1OVowajELMAkGA1UEBhMCREUxGTAXBgNVBAoMEERhbWFzY2hr
ZXN0ci4gMTExFjAUBgNVBAsMDUFyYmVpdHN6aW1tZXIxKDAmBgNVBAMMH0RhbWEx
MSBMYWIgSW50ZXJtZWRpYXJ5IFRlc3QgQ0EwggIiMA0GCSqGSIb3DQEBAQUAA4IC
DwAwggIKAoICAQC1r96Y4pUg0NWxXziknw/eyHl3VTayyqxiGeir9p0BwTmW7JZ7
xztFgdJn1WX2dXCIRHdXrch0tUOfyps9rPceUhAuqPjMOVdSpa96GUn9AwwXTMDG
l5w7DDUyrxYH9Eri0kL/oo489QJ/hzp/UiO+DO6YK6u9veCtiGEd1kC/EBc772lF
FsRli4625zZ/dWxkJbG490K0PMtY8Bjsl6ObNeq9AxHYOoCtrbqVnDwOKhY7gRz7
dCFdFTBfPPhmMoXjszd8r0gRHxtzWZ69v69Bo9IowWf1tH5uNEXzTkn5wCO7IQbR
0+nJ+a9Zrn5FwJHRzuNf6K9RgMROa1I4bZTI9cG8pBzuQ2POYbzJN0fYvwEcODHB
UM2SDj6IfVu8D70mGA/8OWfyYetOx/ZSi6SLYL8ant1G0gLak19Hb8cu84SZhyse
FYYahDlvs9cLCBuFchZP4voLBS9y5f5kHJl8vC1S/9qtKafHdMAYD2XU5PRfggWJ
ua+yuFtN6FJYjTkVMZCrEgJURxcjOSx8Ep7x721pyx3pMYFwdPN8sAhqN09Bv9cr
b5s2DHmgOhdsLUccP5/NgHDBqoZWcC5dZKuhpAub6xHpHFql2zadXhPf41zQB/aO
IFgPJHcL1XN05d7dAvQUrI7GaeDuxBHUA6JNQDx9eIlJkzs0gk2nzAp8RwIDAQAB
o4H/MIH8MA4GA1UdDwEB/wQEAwIBBjAPBgNVHRMBAf8EBTADAQH/MB0GA1UdDgQW
BBTomiXWMUHCx0MQR9pk52lKw/NLJzAfBgNVHSMEGDAWgBQBsi1WPId/qF9hvFgB
vx79SsrKjTBRBggrBgEFBQcBAQRFMEMwQQYIKwYBBQUHMAKGNWh0dHBzOi8vZWxi
b3Nzby5naXRodWIuaW8veDUwOS8vRGFtYTExX1Jvb3RfQ0EtY2EuY3J0MEYGA1Ud
HwQ/MD0wO6A5oDeGNWh0dHBzOi8vZWxib3Nzby5naXRodWIuaW8veDUwOS8vRGFt
YTExX1Jvb3RfQ0EtY2EuY3JsMA0GCSqGSIb3DQEBDQUAA4ICAQAIXt1vyNKKsiuN
LtdvfU8CngeTGLLLYkr5hC0CE5IlXbFaIx9qLdMy1Wte5bRxUrliKT3PrHhc2Kmj
AAtlAjba74bd+ZvT7l252obKQLebyCgrA6IQfCU9Mu5QAWSRr4fyvduyDtGqAJOv
kNJQqVG+YPc8Smi9eJ9vlKCzMIEuN5PY936lEWaCrk61ZjfoiT3hceUJJuBNP6gS
cnGHNY/tY7Vh+wazbsbYTlXZ7izaM7v/ikGUF1EvxLoShqZ7Iecnqc7C1T2NgBZL
XJHrnjDqqKDssBx5U+QzTmA9BaKMUsjLWy9PL7pIairQf8CFC2e0AISWAPYMApc5
G81pDEWVqNo3eHd9+O5TT6GNJ2zjTUWWbhj8Mh0QPMEAtzrO3FKVlAz5v8KYBFH4
Hxft0ncRBFDVL89m7TD3q9ylpbCP0E9GGET3C08vhWlY9GLWo5U+U4j3FWMZX8YK
F/U5858txDrZZ/APCZL3xYGT06iT7dBMQUwnLvwf9Nx3UTKtxY8Nplv9wGSnWoda
CaIpYWYi1JRTHEHdrJuEkyx++L0VryJDfN1WqxP5bATzZGsRKaLrLT4p1K0o4dZl
9JrOYKrWzJtSjmay8yTB7yJEmgQ7QVTbBAHUDmYIL9N5pIe1zjdYlG3Z5yzFpq+G
EtFFmloyMeDkl6q5mKgXi9QHLvH7Ng==
-----END CERTIFICATE-----
