Certificate:
    Data:
        Version: 3 (0x2)
        Serial Number: 9 (0x9)
        Signature Algorithm: sha512WithRSAEncryption
        Issuer: C=DE, O=Damaschkestr. 11, OU=Arbeitszimmer, CN=Dama11 Lab Intermediary CA
        Validity
            Not Before: Oct  4 13:26:54 2025 GMT
            Not After : Sep 30 23:59:59 2030 GMT
        Subject: C=DE, O=Damaschkestr. 11, OU=Arbeitszimmer, CN=Dama11 Lab Component CA
        Subject Public Key Info:
            Public Key Algorithm: rsaEncryption
                Public-Key: (4096 bit)
                Modulus:
                    00:b3:03:c1:ea:06:29:21:18:26:68:53:34:4e:af:
                    fd:92:f2:f9:1d:31:65:55:b5:4c:26:8d:d7:64:a2:
                    e8:b7:7c:fd:53:6e:77:be:b9:bb:63:0d:35:6d:8d:
                    7e:74:16:fe:f5:36:d4:00:c4:5b:92:54:59:da:7c:
                    c2:20:c6:35:b9:88:b6:79:a8:3e:de:1c:d4:ed:21:
                    4e:c5:0c:ea:b8:8c:5d:3c:94:3d:52:29:c8:f4:f4:
                    01:2f:59:bd:f8:91:51:4b:74:3c:c1:24:0f:03:c1:
                    2a:8b:f2:21:54:4d:14:c2:2f:bd:78:93:77:3d:32:
                    07:3d:af:64:a4:8f:0a:b1:d3:6d:26:ba:92:0b:93:
                    23:7a:b6:97:c6:d8:89:6f:00:cd:0e:bb:03:54:5e:
                    6d:3d:29:3a:e5:92:6c:7d:37:d5:c0:79:68:f0:d0:
                    26:95:7c:45:6f:21:34:52:e2:c7:ba:64:7f:33:b1:
                    91:d5:b8:e8:46:b3:00:cf:9b:eb:51:69:a6:f9:b4:
                    8a:0f:95:ed:a2:ba:d0:97:70:d3:4e:ef:35:99:83:
                    10:a1:31:af:e7:92:10:ba:6b:33:10:37:b1:07:c4:
                    d1:b9:ff:84:ef:31:7a:52:37:55:23:47:8b:2d:ea:
                    97:a9:07:d2:b8:33:9c:f9:da:5a:2e:1d:b2:67:a4:
                    0d:6c:cf:ef:ae:c4:5b:05:8c:94:29:ca:0e:43:56:
                    e2:3e:69:7a:b3:3d:d7:07:25:8d:97:a9:39:20:5d:
                    5a:3a:3f:9e:5e:eb:7f:a8:45:28:e4:80:1b:99:76:
                    47:af:5c:3d:2c:cc:8d:8b:a3:86:35:f4:8a:3e:6a:
                    93:a3:97:9d:94:e1:97:a3:2e:67:56:c8:4e:d2:5d:
                    8b:ea:73:9a:3f:55:ff:df:cd:62:c0:43:4d:a7:f5:
                    a5:51:40:75:6d:97:01:e1:09:f3:0f:35:74:34:23:
                    d0:1b:ff:ff:b0:7d:76:b3:ce:aa:aa:f5:35:d4:be:
                    07:dd:f0:dd:c4:53:7d:39:05:32:79:de:b4:20:5c:
                    41:82:56:15:1a:f7:6f:8c:2c:55:9c:53:9d:16:c9:
                    1e:c1:99:ff:5e:85:31:80:4e:84:8b:22:9d:01:f1:
                    01:7b:dc:30:ca:24:ac:2a:7b:cb:42:57:14:c1:77:
                    28:94:9a:9d:94:42:60:02:f1:23:fd:67:d0:fc:8f:
                    0a:33:17:ac:7f:bf:48:29:7e:8f:86:d0:2c:22:df:
                    29:bc:aa:46:db:aa:4e:03:bb:12:ef:cb:09:1c:60:
                    d1:3c:d3:f5:68:2d:2b:7a:e0:b4:44:62:5b:25:9e:
                    5c:67:a2:cc:15:c2:61:ca:53:84:ce:e4:de:45:6e:
                    4d:9a:c9
                Exponent: 65537 (0x10001)
        X509v3 extensions:
            X509v3 Key Usage: critical
                Certificate Sign, CRL Sign
            X509v3 Basic Constraints: critical
                CA:TRUE, pathlen:0
            X509v3 Subject Key Identifier: 
                D7:68:B6:DC:A5:51:F1:D3:0C:DD:29:CD:40:04:3B:E1:52:D2:DF:3F
            X509v3 Authority Key Identifier: 
                5F:17:9E:B3:3D:7C:34:C0:A1:9B:73:99:DA:3C:34:44:74:57:80:16
            Authority Information Access: 
                CA Issuers - URI:https://elbosso.github.io/x509//Dama11_Intermediary_CA-ca.crt
            X509v3 CRL Distribution Points: 
                Full Name:
                  URI:https://elbosso.github.io/x509//Dama11_Intermediary_CA-ca.crl
    Signature Algorithm: sha512WithRSAEncryption
    Signature Value:
        06:62:e5:cf:d2:e5:0a:a1:cb:43:0e:e8:08:8e:a2:57:62:20:
        0b:62:fa:63:dc:2f:2d:f3:71:13:2d:55:1c:f5:1f:39:8a:a4:
        ce:0c:4e:71:0c:03:b0:17:b5:81:40:36:f7:b6:2c:ff:8f:fe:
        2c:4a:36:f7:5f:9c:cf:c3:17:9f:f8:5c:0a:15:96:4a:7b:98:
        61:81:f3:ed:e3:a6:f6:9a:ee:19:fb:b7:0a:5a:26:29:1f:8c:
        73:17:89:72:bb:de:8a:c3:31:19:1d:e2:ed:71:c3:91:ed:20:
        4f:00:7c:b3:9b:7b:65:f8:14:d7:9a:56:00:24:f9:bd:f7:9d:
        59:95:bd:b4:b8:4d:92:e6:97:b6:dc:09:15:44:74:ae:3f:11:
        c6:2d:8c:ce:09:e1:46:27:d7:73:f7:33:16:4d:a4:c4:ec:5b:
        cc:23:b1:cf:74:ba:16:11:ff:35:ad:17:4f:6a:00:5e:3f:d7:
        0d:47:82:02:73:3d:e7:9e:cd:9a:d8:03:cf:e0:00:ed:72:1c:
        41:10:a7:f7:72:3c:fd:7d:9c:99:ff:1a:a5:d7:cc:43:65:8c:
        fe:28:df:2c:0f:6e:cb:52:2d:12:d0:92:20:1d:07:c8:a9:a8:
        64:2a:0e:fc:bf:a1:f9:15:ba:e7:7d:92:a6:07:48:a7:71:f9:
        f8:a3:8d:4e:f6:50:01:02:cd:d0:6e:9d:f3:0a:75:5c:76:18:
        5c:86:71:6c:e7:3e:b1:04:e6:fb:95:a7:a6:3c:43:26:86:19:
        0c:cf:30:f9:f4:fd:75:ac:59:e6:c4:76:a3:11:17:50:e5:09:
        29:5f:29:ad:aa:10:5f:dc:c8:a6:6f:2e:57:b0:0f:af:a5:3e:
        19:65:ff:d2:e8:b4:e2:7e:cb:63:29:44:35:eb:ff:2a:03:b3:
        76:24:6b:53:b6:10:ab:fd:ca:b8:eb:ca:82:43:ed:56:78:9e:
        cc:3b:47:d0:07:41:cb:1c:0f:df:46:4d:c6:a5:9e:b9:b4:93:
        00:a8:89:5b:ac:c9:ab:1d:f8:f1:cc:5a:c9:0c:b0:04:d2:a8:
        e5:f6:dc:9e:d8:c1:c2:0f:82:16:19:3c:88:07:8e:b6:d5:b0:
        2c:6d:58:fe:4e:2d:34:46:6c:8a:dc:65:12:e7:fe:70:43:3d:
        f7:7f:d4:a8:6f:98:48:30:82:0b:39:80:4f:9a:5e:44:28:07:
        ca:14:9b:6b:30:23:73:0d:86:dc:f6:bf:77:2f:c1:ab:33:af:
        62:c5:70:86:a1:67:3b:52:18:42:53:c9:8c:b0:80:8b:4a:56:
        c0:77:ed:61:88:52:66:58:c2:3e:86:e5:30:36:0c:ca:39:ee:
        d7:a0:ae:1d:73:1e:38:5a
-----BEGIN CERTIFICATE-----
MIIGVzCCBD+gAwIBAgIBCTANBgkqhkiG9w0BAQ0FADBlMQswCQYDVQQGEwJERTEZ
MBcGA1UECgwQRGFtYXNjaGtlc3RyLiAxMTEWMBQGA1UECwwNQXJiZWl0c3ppbW1l
cjEjMCEGA1UEAwwaRGFtYTExIExhYiBJbnRlcm1lZGlhcnkgQ0EwHhcNMjUxMDA0
MTMyNjU0WhcNMzAwOTMwMjM1OTU5WjBiMQswCQYDVQQGEwJERTEZMBcGA1UECgwQ
RGFtYXNjaGtlc3RyLiAxMTEWMBQGA1UECwwNQXJiZWl0c3ppbW1lcjEgMB4GA1UE
AwwXRGFtYTExIExhYiBDb21wb25lbnQgQ0EwggIiMA0GCSqGSIb3DQEBAQUAA4IC
DwAwggIKAoICAQCzA8HqBikhGCZoUzROr/2S8vkdMWVVtUwmjddkoui3fP1Tbne+
ubtjDTVtjX50Fv71NtQAxFuSVFnafMIgxjW5iLZ5qD7eHNTtIU7FDOq4jF08lD1S
Kcj09AEvWb34kVFLdDzBJA8DwSqL8iFUTRTCL714k3c9Mgc9r2Skjwqx020mupIL
kyN6tpfG2IlvAM0OuwNUXm09KTrlkmx9N9XAeWjw0CaVfEVvITRS4se6ZH8zsZHV
uOhGswDPm+tRaab5tIoPle2iutCXcNNO7zWZgxChMa/nkhC6azMQN7EHxNG5/4Tv
MXpSN1UjR4st6pepB9K4M5z52louHbJnpA1sz++uxFsFjJQpyg5DVuI+aXqzPdcH
JY2XqTkgXVo6P55e63+oRSjkgBuZdkevXD0szI2Lo4Y19Io+apOjl52U4ZejLmdW
yE7SXYvqc5o/Vf/fzWLAQ02n9aVRQHVtlwHhCfMPNXQ0I9Ab//+wfXazzqqq9TXU
vgfd8N3EU305BTJ53rQgXEGCVhUa92+MLFWcU50WyR7Bmf9ehTGAToSLIp0B8QF7
3DDKJKwqe8tCVxTBdyiUmp2UQmAC8SP9Z9D8jwozF6x/v0gpfo+G0Cwi3ym8qkbb
qk4DuxLvywkcYNE80/VoLSt64LREYlslnlxnoswVwmHKU4TO5N5Fbk2ayQIDAQAB
o4IBEzCCAQ8wDgYDVR0PAQH/BAQDAgEGMBIGA1UdEwEB/wQIMAYBAf8CAQAwHQYD
VR0OBBYEFNdottylUfHTDN0pzUAEO+FS0t8/MB8GA1UdIwQYMBaAFF8XnrM9fDTA
oZtzmdo8NER0V4AWMFkGCCsGAQUFBwEBBE0wSzBJBggrBgEFBQcwAoY9aHR0cHM6
Ly9lbGJvc3NvLmdpdGh1Yi5pby94NTA5Ly9EYW1hMTFfSW50ZXJtZWRpYXJ5X0NB
LWNhLmNydDBOBgNVHR8ERzBFMEOgQaA/hj1odHRwczovL2VsYm9zc28uZ2l0aHVi
LmlvL3g1MDkvL0RhbWExMV9JbnRlcm1lZGlhcnlfQ0EtY2EuY3JsMA0GCSqGSIb3
DQEBDQUAA4ICAQAGYuXP0uUKoctDDugIjqJXYiALYvpj3C8t83ETLVUc9R85iqTO
DE5xDAOwF7WBQDb3tiz/j/4sSjb3X5zPwxef+FwKFZZKe5hhgfPt46b2mu4Z+7cK
WiYpH4xzF4lyu96KwzEZHeLtccOR7SBPAHyzm3tl+BTXmlYAJPm9951Zlb20uE2S
5pe23AkVRHSuPxHGLYzOCeFGJ9dz9zMWTaTE7FvMI7HPdLoWEf81rRdPagBeP9cN
R4ICcz3nns2a2APP4ADtchxBEKf3cjz9fZyZ/xql18xDZYz+KN8sD27LUi0S0JIg
HQfIqahkKg78v6H5FbrnfZKmB0incfn4o41O9lABAs3Qbp3zCnVcdhhchnFs5z6x
BOb7laemPEMmhhkMzzD59P11rFnmxHajERdQ5QkpXymtqhBf3Mimby5XsA+vpT4Z
Zf/S6LTifstjKUQ16/8qA7N2JGtTthCr/cq468qCQ+1WeJ7MO0fQB0HLHA/fRk3G
pZ65tJMAqIlbrMmrHfjxzFrJDLAE0qjl9tye2MHCD4IWGTyIB4621bAsbVj+Ti00
RmyK3GUS5/5wQz33f9Sob5hIMIILOYBPml5EKAfKFJtrMCNzDYbc9r93L8GrM69i
xXCGoWc7UhhCU8mMsICLSlbAd+1hiFJmWMI+huUwNgzKOe7XoK4dcx44Wg==
-----END CERTIFICATE-----
