Certificate:
    Data:
        Version: 3 (0x2)
        Serial Number: 1 (0x1)
        Signature Algorithm: sha512WithRSAEncryption
        Issuer: C=DE, O=Damaschkestr. 11, OU=Arbeitszimmer, CN=Dama11 Lab External Party B Root CA
        Validity
            Not Before: Dec  9 12:06:16 2022 GMT
            Not After : Dec  9 23:59:59 2025 GMT
        Subject: C=DE, O=Damaschkestr. 11, OU=Arbeitszimmer, CN=Dama11 Lab External Party B Intermediary
        Subject Public Key Info:
            Public Key Algorithm: rsaEncryption
                RSA Public-Key: (4096 bit)
                Modulus:
                    00:bf:24:6c:19:22:44:7a:6e:99:f0:cb:e5:b0:07:
                    34:f2:67:2c:fa:8a:a3:13:b8:96:10:40:1b:d7:62:
                    fa:52:fa:b2:fc:37:ce:a8:4d:3b:f0:89:a2:f3:5e:
                    14:fb:d5:37:d2:95:d8:e4:95:85:4a:f4:78:ac:93:
                    78:f6:47:b2:dc:9b:f6:7b:a4:09:0a:ca:e3:e0:6f:
                    c9:e7:c4:d2:dc:73:16:ef:6f:db:96:1f:82:d5:c4:
                    fc:cc:2d:f4:72:b2:93:13:0a:5c:54:a0:36:0a:ad:
                    a6:f9:30:3d:54:e8:9e:0d:98:20:fb:45:df:8e:b3:
                    18:83:ea:90:66:7b:82:78:ab:4d:44:65:68:01:b6:
                    8c:35:19:d7:ce:fd:99:7b:78:be:87:56:f3:98:5d:
                    e8:be:b6:73:ac:52:4f:6a:c8:0a:cc:c7:84:e6:f4:
                    04:c8:b5:83:65:c3:66:20:40:60:83:0f:59:8e:92:
                    c4:65:6a:ad:3d:18:27:b5:6e:71:98:71:3e:86:61:
                    2a:f1:53:e8:cc:85:4c:5b:dc:bf:6a:61:13:8f:04:
                    9f:8c:7d:08:fa:e0:21:e8:a5:53:3f:bd:9b:6d:85:
                    22:d2:60:72:ee:3f:f2:d9:6c:43:fe:74:64:90:b5:
                    ed:78:38:d9:d4:bf:68:97:7d:ff:26:1d:19:87:e2:
                    1e:53:01:15:65:30:40:02:02:6c:60:63:d1:bd:c9:
                    6f:25:49:78:54:4f:69:1a:0d:ef:19:1d:13:9b:fe:
                    36:89:ee:47:94:58:ca:2c:fa:de:54:dc:aa:43:73:
                    40:87:10:da:98:e8:79:37:e1:70:de:04:b1:f6:11:
                    d4:18:39:b7:f3:bb:0f:59:5a:c4:39:44:1d:68:20:
                    54:0f:5e:9a:8a:e3:de:7e:d7:82:00:f7:46:5d:ef:
                    d4:78:9d:a4:9a:58:2e:4b:a2:ac:31:91:9f:7d:3a:
                    0e:20:d8:bd:15:cc:5d:a0:23:2a:19:87:0d:87:59:
                    15:c8:0a:51:d2:aa:65:29:a5:43:29:e1:3d:2a:6f:
                    96:f7:17:11:bb:9b:f8:11:a4:5f:0a:10:e5:a9:5e:
                    f9:fc:a9:7d:9a:e1:3c:9a:46:c0:2b:12:01:54:da:
                    1c:9c:78:40:5f:2c:0b:4f:22:85:9a:27:21:f0:32:
                    c8:b6:0d:8e:6d:69:45:7f:d5:97:70:f2:17:21:85:
                    f9:a0:c7:08:5f:6b:79:32:5d:61:21:5e:0c:2f:36:
                    96:d6:0b:e4:3c:39:59:d7:4c:56:57:9e:4f:7c:e6:
                    63:37:30:d1:3b:b9:9f:02:30:6c:87:8e:7a:a1:f4:
                    79:f5:03:85:d6:52:e2:1c:00:19:5f:c8:0d:53:ad:
                    e0:de:bb
                Exponent: 65537 (0x10001)
        X509v3 extensions:
            X509v3 Key Usage: critical
                Certificate Sign, CRL Sign
            X509v3 Basic Constraints: critical
                CA:TRUE, pathlen:1
            X509v3 Subject Key Identifier: 
                4B:A9:DB:6B:58:C7:D5:05:CB:C8:51:EC:0A:E5:63:83:AB:7F:BB:E2
            X509v3 Authority Key Identifier: 
                keyid:73:7B:36:18:C3:C0:1D:F7:D0:11:76:41:D7:8E:B1:C4:93:B1:E6:04

            Authority Information Access: 
                CA Issuers - URI:https://elbosso.github.io/x509//Dama11_External_Party_B_Root_CA-ca.crt

            X509v3 CRL Distribution Points: 

                Full Name:
                  URI:https://elbosso.github.io/x509//Dama11_External_Party_B_Root_CA-ca.crl

    Signature Algorithm: sha512WithRSAEncryption
         a1:45:00:6f:de:0c:28:bf:df:50:55:91:a1:18:a5:02:1d:d4:
         5f:80:7c:32:3c:09:e5:b4:75:83:89:19:ed:b2:7a:da:3c:23:
         ab:24:5a:a9:61:bf:f8:c2:5f:82:3b:0a:19:dd:37:f2:ab:4e:
         b3:e8:47:8f:09:f8:86:ca:b6:35:67:3e:7d:93:8b:b3:13:33:
         ff:51:eb:9b:08:99:45:33:58:e1:d2:b3:10:39:2c:0f:26:70:
         44:6e:b0:1a:90:db:f6:07:20:8a:64:77:f9:e4:29:15:5f:57:
         6d:a0:22:fb:e8:a3:a1:73:45:d6:60:ea:ef:7a:f2:6b:8e:66:
         34:01:39:bf:b5:a7:4e:06:b1:c3:88:73:32:32:29:af:5e:54:
         67:ed:aa:ec:9a:32:40:03:b9:1d:e8:b3:e7:56:7a:cd:41:57:
         44:a9:96:84:b0:cb:f8:7f:a2:a3:24:01:f8:bb:80:af:e9:03:
         59:19:c5:cb:c6:7d:6b:b7:ca:bf:de:c4:fb:68:30:e5:cb:b8:
         b0:eb:0d:d2:1b:70:39:e4:cb:38:16:41:54:75:4a:ae:6e:00:
         f9:fb:6a:bf:50:96:51:94:e8:c0:b8:d2:eb:a7:04:16:9d:4d:
         be:64:ca:4a:24:55:33:88:0c:c8:22:eb:25:47:ff:4a:60:bd:
         ab:f0:d3:e9:69:64:aa:83:45:f1:d7:e9:08:be:bd:4d:dd:6c:
         f6:c0:36:b9:76:97:5e:4b:74:19:e2:0d:45:31:19:48:8b:d2:
         67:4c:4c:4d:6f:c1:2c:d8:19:7c:65:97:71:1b:b6:6e:6b:9b:
         eb:cf:f9:0d:b2:6e:c6:6b:f3:86:fd:f2:5f:76:26:f7:56:11:
         4d:23:80:be:ff:80:cc:fc:66:6f:f8:e4:00:d9:87:73:e3:c1:
         da:eb:16:e0:5b:2d:b9:8b:52:f5:30:c0:6e:1d:0d:1c:e6:e6:
         c7:ba:33:b2:80:e8:19:0a:35:01:bd:04:be:ca:ac:83:ec:e1:
         ab:b5:14:f9:88:76:98:7e:ae:ab:56:0d:60:68:6f:ec:9d:2e:
         8b:81:2f:48:4f:5a:b3:35:b5:85:b7:5e:99:44:5e:a5:ad:c3:
         fe:a7:cc:34:dc:dc:70:ae:bc:43:59:0e:0c:32:fe:92:65:cd:
         9a:dd:e1:27:73:09:bd:36:4b:fa:4f:e3:d2:bc:28:63:4b:39:
         a2:3e:e0:82:81:28:16:71:aa:7a:7c:2b:78:0d:17:83:03:eb:
         61:1f:17:81:8b:8b:bb:76:c9:2e:00:5f:b1:ec:62:05:59:9f:
         87:f8:2f:dc:82:b5:61:6b:94:b2:b1:77:ec:b0:0f:a0:11:b3:
         c4:d2:b2:e9:86:77:fa:4e
-----BEGIN CERTIFICATE-----
MIIGgzCCBGugAwIBAgIBATANBgkqhkiG9w0BAQ0FADBuMQswCQYDVQQGEwJERTEZ
MBcGA1UECgwQRGFtYXNjaGtlc3RyLiAxMTEWMBQGA1UECwwNQXJiZWl0c3ppbW1l
cjEsMCoGA1UEAwwjRGFtYTExIExhYiBFeHRlcm5hbCBQYXJ0eSBCIFJvb3QgQ0Ew
HhcNMjIxMjA5MTIwNjE2WhcNMjUxMjA5MjM1OTU5WjBzMQswCQYDVQQGEwJERTEZ
MBcGA1UECgwQRGFtYXNjaGtlc3RyLiAxMTEWMBQGA1UECwwNQXJiZWl0c3ppbW1l
cjExMC8GA1UEAwwoRGFtYTExIExhYiBFeHRlcm5hbCBQYXJ0eSBCIEludGVybWVk
aWFyeTCCAiIwDQYJKoZIhvcNAQEBBQADggIPADCCAgoCggIBAL8kbBkiRHpumfDL
5bAHNPJnLPqKoxO4lhBAG9di+lL6svw3zqhNO/CJovNeFPvVN9KV2OSVhUr0eKyT
ePZHstyb9nukCQrK4+BvyefE0txzFu9v25YfgtXE/Mwt9HKykxMKXFSgNgqtpvkw
PVTong2YIPtF346zGIPqkGZ7gnirTURlaAG2jDUZ1879mXt4vodW85hd6L62c6xS
T2rICszHhOb0BMi1g2XDZiBAYIMPWY6SxGVqrT0YJ7VucZhxPoZhKvFT6MyFTFvc
v2phE48En4x9CPrgIeilUz+9m22FItJgcu4/8tlsQ/50ZJC17Xg42dS/aJd9/yYd
GYfiHlMBFWUwQAICbGBj0b3JbyVJeFRPaRoN7xkdE5v+NonuR5RYyiz63lTcqkNz
QIcQ2pjoeTfhcN4EsfYR1Bg5t/O7D1laxDlEHWggVA9emorj3n7XggD3Rl3v1Hid
pJpYLkuirDGRn306DiDYvRXMXaAjKhmHDYdZFcgKUdKqZSmlQynhPSpvlvcXEbub
+BGkXwoQ5ale+fypfZrhPJpGwCsSAVTaHJx4QF8sC08ihZonIfAyyLYNjm1pRX/V
l3DyFyGF+aDHCF9reTJdYSFeDC82ltYL5Dw5WddMVleeT3zmYzcw0Tu5nwIwbIeO
eqH0efUDhdZS4hwAGV/IDVOt4N67AgMBAAGjggElMIIBITAOBgNVHQ8BAf8EBAMC
AQYwEgYDVR0TAQH/BAgwBgEB/wIBATAdBgNVHQ4EFgQUS6nba1jH1QXLyFHsCuVj
g6t/u+IwHwYDVR0jBBgwFoAUc3s2GMPAHffQEXZB146xxJOx5gQwYgYIKwYBBQUH
AQEEVjBUMFIGCCsGAQUFBzAChkZodHRwczovL2VsYm9zc28uZ2l0aHViLmlvL3g1
MDkvL0RhbWExMV9FeHRlcm5hbF9QYXJ0eV9CX1Jvb3RfQ0EtY2EuY3J0MFcGA1Ud
HwRQME4wTKBKoEiGRmh0dHBzOi8vZWxib3Nzby5naXRodWIuaW8veDUwOS8vRGFt
YTExX0V4dGVybmFsX1BhcnR5X0JfUm9vdF9DQS1jYS5jcmwwDQYJKoZIhvcNAQEN
BQADggIBAKFFAG/eDCi/31BVkaEYpQId1F+AfDI8CeW0dYOJGe2yeto8I6skWqlh
v/jCX4I7ChndN/KrTrPoR48J+IbKtjVnPn2Ti7MTM/9R65sImUUzWOHSsxA5LA8m
cERusBqQ2/YHIIpkd/nkKRVfV22gIvvoo6FzRdZg6u968muOZjQBOb+1p04GscOI
czIyKa9eVGftquyaMkADuR3os+dWes1BV0SploSwy/h/oqMkAfi7gK/pA1kZxcvG
fWu3yr/exPtoMOXLuLDrDdIbcDnkyzgWQVR1Sq5uAPn7ar9QllGU6MC40uunBBad
Tb5kykokVTOIDMgi6yVH/0pgvavw0+lpZKqDRfHX6Qi+vU3dbPbANrl2l15LdBni
DUUxGUiL0mdMTE1vwSzYGXxll3Ebtm5rm+vP+Q2ybsZr84b98l92JvdWEU0jgL7/
gMz8Zm/45ADZh3PjwdrrFuBbLbmLUvUwwG4dDRzm5se6M7KA6BkKNQG9BL7KrIPs
4au1FPmIdph+rqtWDWBob+ydLouBL0hPWrM1tYW3XplEXqWtw/6nzDTc3HCuvENZ
Dgwy/pJlzZrd4SdzCb02S/pP49K8KGNLOaI+4IKBKBZxqnp8K3gNF4MD62EfF4GL
i7t2yS4AX7HsYgVZn4f4L9yCtWFrlLKxd+ywD6ARs8TSsumGd/pO
-----END CERTIFICATE-----
