Certificate:
    Data:
        Version: 3 (0x2)
        Serial Number: 11 (0xb)
        Signature Algorithm: sha512WithRSAEncryption
        Issuer: C=DE, O=Damaschkestr. 11, OU=Arbeitszimmer, CN=Dama11 Lab Intermediary Test CA
        Validity
            Not Before: Oct  5 07:05:29 2025 GMT
            Not After : Oct  6 23:59:59 2030 GMT
        Subject: C=DE, O=Damaschkestr. 11, OU=Arbeitszimmer, CN=Dama11 Lab Component Test CA
        Subject Public Key Info:
            Public Key Algorithm: rsaEncryption
                Public-Key: (4096 bit)
                Modulus:
                    00:b2:26:2a:b7:d6:7a:79:9a:85:95:d9:e5:b7:07:
                    b8:ea:12:86:dc:4f:69:a3:02:f1:18:99:05:1c:91:
                    a0:f5:1e:45:e3:9c:b9:15:59:40:72:86:66:61:ac:
                    76:d8:55:73:9e:aa:28:e5:69:dc:44:f3:04:6f:e5:
                    96:af:46:3f:be:49:9a:e0:cd:06:1b:f2:08:eb:3f:
                    0f:51:fc:a5:65:a2:9c:09:3a:4b:6b:c3:a0:4b:83:
                    fd:f2:b8:84:1d:c3:94:47:7b:b5:ca:23:f1:06:4b:
                    af:d0:9c:51:74:ce:4b:7f:0e:cb:b2:3d:bc:e0:d8:
                    e3:b0:66:1b:cf:12:54:e5:21:c5:a9:af:30:9c:13:
                    da:45:c4:e9:64:de:29:60:68:ea:b6:4e:f0:5f:81:
                    2f:1f:31:ab:f8:46:04:5c:81:1d:e1:11:3a:b9:e8:
                    19:6c:57:59:6a:74:c3:f4:ac:c7:6e:a4:da:94:b4:
                    96:cc:96:24:18:15:a5:24:c4:7f:ac:f2:19:15:f0:
                    56:3e:ab:6c:f0:db:d6:dc:9f:1f:5a:7f:bd:41:46:
                    74:e4:8d:59:50:90:8c:7d:46:73:0e:29:90:75:4a:
                    40:a8:bf:27:6e:05:06:b4:1f:03:2d:66:e5:aa:88:
                    4a:84:d9:f3:a9:08:86:63:33:e3:86:63:8d:ca:e4:
                    e8:e4:2c:32:0a:9f:7a:38:33:6d:21:bf:2f:c7:a0:
                    56:62:f3:a3:4e:65:85:1c:c7:a8:39:30:fc:da:f3:
                    3f:fa:39:10:22:4f:92:44:de:e3:23:e5:6e:c5:38:
                    05:1a:a4:5e:90:ac:5c:f1:ff:97:17:55:d5:10:6b:
                    69:18:bf:8c:27:a2:ca:6a:3f:ee:80:70:99:b4:de:
                    d8:75:6b:04:f1:b9:04:70:79:60:17:2f:d0:e4:b4:
                    9f:09:3e:d7:5d:c5:c0:67:a8:b2:9e:ef:c5:ff:5f:
                    30:d9:17:b9:da:fd:45:e5:8e:51:15:48:dd:5e:d0:
                    ab:18:8a:49:5f:54:2f:00:e1:4a:e0:4e:ff:10:5d:
                    48:88:4c:db:98:13:5d:ec:8d:3a:9a:bc:84:b5:38:
                    b0:6a:c5:86:5f:84:de:72:d1:c1:cd:e0:80:72:13:
                    da:d4:f8:a2:d2:19:7f:bb:50:94:ea:5e:b4:dd:ee:
                    ea:8d:ea:d6:ab:28:30:5d:43:5a:db:f3:7f:4a:ec:
                    dd:12:92:38:d3:0b:98:0b:e5:f7:63:d4:fc:a8:58:
                    b7:83:d0:fd:b7:6e:96:89:4a:5c:c9:ca:cb:b6:48:
                    d7:6a:73:c1:9d:11:b7:32:54:a5:19:64:a1:87:2f:
                    1e:70:51:b0:c0:20:a9:72:17:5b:a2:d0:d6:84:27:
                    bd:9c:15
                Exponent: 65537 (0x10001)
        X509v3 extensions:
            X509v3 Key Usage: critical
                Certificate Sign, CRL Sign
            X509v3 Basic Constraints: critical
                CA:TRUE, pathlen:0
            X509v3 Subject Key Identifier: 
                8E:E3:1C:A5:A3:ED:35:B8:9E:61:08:03:F1:CF:54:9C:07:A4:22:1C
            X509v3 Authority Key Identifier: 
                E8:9A:25:D6:31:41:C2:C7:43:10:47:DA:64:E7:69:4A:C3:F3:4B:27
            Authority Information Access: 
                CA Issuers - URI:https://elbosso.github.io/x509//Dama11_Intermediary_Test_CA-ca.crt
            X509v3 CRL Distribution Points: 
                Full Name:
                  URI:https://elbosso.github.io/x509//Dama11_Intermediary_Test_CA-ca.crl
    Signature Algorithm: sha512WithRSAEncryption
    Signature Value:
        2f:f8:24:67:0b:bc:7a:a6:89:85:b1:af:e1:fe:87:93:9f:da:
        f8:ba:ec:2a:49:c6:e9:75:b0:bd:1c:d1:97:8b:85:86:5b:d8:
        6b:a2:11:a7:97:30:48:67:8a:a7:7c:46:ae:15:23:d8:e6:ce:
        4f:65:c6:5b:aa:ca:69:35:cd:68:fc:78:c5:5a:5b:47:54:8c:
        30:34:24:ea:a1:18:74:94:0b:05:a5:44:1e:8f:70:6a:de:e7:
        49:b4:3a:b1:dd:14:5a:2c:76:29:83:6a:61:a6:ef:1d:6c:a4:
        84:2d:ab:85:69:75:56:54:0a:78:ad:68:9c:9a:eb:16:90:af:
        7e:f8:86:4e:64:94:8e:18:f8:a9:d0:85:86:42:45:45:6f:8d:
        36:4c:bf:37:8a:b4:a0:16:14:f5:ff:b1:28:54:4a:4e:64:99:
        8e:2a:ec:27:8a:ee:92:fa:86:c9:7e:3e:87:b3:73:12:04:53:
        7b:69:d0:80:8f:7a:d7:2f:8a:33:b4:30:8a:6c:39:cb:e1:56:
        d1:a5:34:02:b4:3a:42:3c:40:88:be:18:4f:04:71:c5:65:5a:
        2f:3c:0d:80:82:80:90:a4:d5:a7:8a:e9:d5:8a:9e:d5:42:88:
        84:fa:96:f2:c3:5b:6a:e2:64:60:05:18:27:89:77:e2:42:96:
        d6:83:51:28:61:1c:3b:9b:da:73:b7:90:f3:fa:48:b6:f5:8a:
        b9:7f:e5:7b:43:8e:05:76:ec:22:0d:9d:30:e0:87:50:f3:07:
        c2:bc:a8:10:91:fa:32:6f:35:9f:33:0b:e8:83:1c:aa:f3:fa:
        63:be:0c:85:3c:49:d5:39:33:fd:4a:38:21:b0:be:f7:a3:b9:
        5e:bd:ae:23:e0:78:cc:ae:f1:f6:d2:cc:3f:32:ab:fd:0a:be:
        6c:9d:2e:4f:09:65:2e:46:f0:25:58:d8:8f:a9:91:5c:21:cb:
        ea:49:6c:d5:09:e5:32:83:a7:7e:6d:2f:8e:7a:ca:48:58:b8:
        98:20:18:4e:86:27:f7:78:30:54:7c:8c:72:41:76:4e:88:53:
        c6:ef:92:ea:de:88:b2:d8:62:05:3a:d2:7c:3b:80:49:b6:d7:
        dc:01:6f:dd:9c:8e:70:33:2a:f5:c1:ad:25:64:29:b1:de:11:
        97:98:34:b6:7a:15:9f:09:67:93:c6:4c:c2:79:8a:5b:40:ff:
        a1:bb:24:8b:19:ac:d0:d1:fe:60:52:45:89:6e:87:c5:e4:9a:
        3c:54:a6:bc:43:d2:07:44:1d:e8:14:09:e5:85:38:b1:01:06:
        47:d6:79:47:f5:39:78:da:8e:58:5f:eb:32:0a:f5:cd:b6:b1:
        b3:27:d1:37:e0:6f:59:4d
-----BEGIN CERTIFICATE-----
MIIGazCCBFOgAwIBAgIBCzANBgkqhkiG9w0BAQ0FADBqMQswCQYDVQQGEwJERTEZ
MBcGA1UECgwQRGFtYXNjaGtlc3RyLiAxMTEWMBQGA1UECwwNQXJiZWl0c3ppbW1l
cjEoMCYGA1UEAwwfRGFtYTExIExhYiBJbnRlcm1lZGlhcnkgVGVzdCBDQTAeFw0y
NTEwMDUwNzA1MjlaFw0zMDEwMDYyMzU5NTlaMGcxCzAJBgNVBAYTAkRFMRkwFwYD
VQQKDBBEYW1hc2Noa2VzdHIuIDExMRYwFAYDVQQLDA1BcmJlaXRzemltbWVyMSUw
IwYDVQQDDBxEYW1hMTEgTGFiIENvbXBvbmVudCBUZXN0IENBMIICIjANBgkqhkiG
9w0BAQEFAAOCAg8AMIICCgKCAgEAsiYqt9Z6eZqFldnltwe46hKG3E9powLxGJkF
HJGg9R5F45y5FVlAcoZmYax22FVznqoo5WncRPMEb+WWr0Y/vkma4M0GG/II6z8P
UfylZaKcCTpLa8OgS4P98riEHcOUR3u1yiPxBkuv0JxRdM5Lfw7Lsj284NjjsGYb
zxJU5SHFqa8wnBPaRcTpZN4pYGjqtk7wX4EvHzGr+EYEXIEd4RE6uegZbFdZanTD
9KzHbqTalLSWzJYkGBWlJMR/rPIZFfBWPqts8NvW3J8fWn+9QUZ05I1ZUJCMfUZz
DimQdUpAqL8nbgUGtB8DLWblqohKhNnzqQiGYzPjhmONyuTo5CwyCp96ODNtIb8v
x6BWYvOjTmWFHMeoOTD82vM/+jkQIk+SRN7jI+VuxTgFGqRekKxc8f+XF1XVEGtp
GL+MJ6LKaj/ugHCZtN7YdWsE8bkEcHlgFy/Q5LSfCT7XXcXAZ6iynu/F/18w2Re5
2v1F5Y5RFUjdXtCrGIpJX1QvAOFK4E7/EF1IiEzbmBNd7I06mryEtTiwasWGX4Te
ctHBzeCAchPa1Pii0hl/u1CU6l603e7qjerWqygwXUNa2/N/SuzdEpI40wuYC+X3
Y9T8qFi3g9D9t26WiUpcycrLtkjXanPBnRG3MlSlGWShhy8ecFGwwCCpchdbotDW
hCe9nBUCAwEAAaOCAR0wggEZMA4GA1UdDwEB/wQEAwIBBjASBgNVHRMBAf8ECDAG
AQH/AgEAMB0GA1UdDgQWBBSO4xylo+01uJ5hCAPxz1ScB6QiHDAfBgNVHSMEGDAW
gBTomiXWMUHCx0MQR9pk52lKw/NLJzBeBggrBgEFBQcBAQRSMFAwTgYIKwYBBQUH
MAKGQmh0dHBzOi8vZWxib3Nzby5naXRodWIuaW8veDUwOS8vRGFtYTExX0ludGVy
bWVkaWFyeV9UZXN0X0NBLWNhLmNydDBTBgNVHR8ETDBKMEigRqBEhkJodHRwczov
L2VsYm9zc28uZ2l0aHViLmlvL3g1MDkvL0RhbWExMV9JbnRlcm1lZGlhcnlfVGVz
dF9DQS1jYS5jcmwwDQYJKoZIhvcNAQENBQADggIBAC/4JGcLvHqmiYWxr+H+h5Of
2vi67CpJxul1sL0c0ZeLhYZb2GuiEaeXMEhniqd8Rq4VI9jmzk9lxluqymk1zWj8
eMVaW0dUjDA0JOqhGHSUCwWlRB6PcGre50m0OrHdFFosdimDamGm7x1spIQtq4Vp
dVZUCnitaJya6xaQr374hk5klI4Y+KnQhYZCRUVvjTZMvzeKtKAWFPX/sShUSk5k
mY4q7CeK7pL6hsl+PoezcxIEU3tp0ICPetcvijO0MIpsOcvhVtGlNAK0OkI8QIi+
GE8EccVlWi88DYCCgJCk1aeK6dWKntVCiIT6lvLDW2riZGAFGCeJd+JCltaDUShh
HDub2nO3kPP6SLb1irl/5XtDjgV27CINnTDgh1DzB8K8qBCR+jJvNZ8zC+iDHKrz
+mO+DIU8SdU5M/1KOCGwvvejuV69riPgeMyu8fbSzD8yq/0KvmydLk8JZS5G8CVY
2I+pkVwhy+pJbNUJ5TKDp35tL456ykhYuJggGE6GJ/d4MFR8jHJBdk6IU8bvkure
iLLYYgU60nw7gEm219wBb92cjnAzKvXBrSVkKbHeEZeYNLZ6FZ8JZ5PGTMJ5iltA
/6G7JIsZrNDR/mBSRYluh8XkmjxUprxD0gdEHegUCeWFOLEBBkfWeUf1OXjajlhf
6zIK9c22sbMn0Tfgb1lN
-----END CERTIFICATE-----
