Certificate:
    Data:
        Version: 3 (0x2)
        Serial Number: 1 (0x1)
        Signature Algorithm: sha512WithRSAEncryption
        Issuer: C=DE, O=Damaschkestr. 11, OU=Arbeitszimmer, CN=Dama11 Lab External Party A Root CA
        Validity
            Not Before: Dec  9 12:17:30 2022 GMT
            Not After : Dec  9 23:59:59 2025 GMT
        Subject: C=DE, O=Damaschkestr. 11, OU=Arbeitszimmer, CN=Dama11 Lab Ext Party A Intermediary 1 CA
        Subject Public Key Info:
            Public Key Algorithm: rsaEncryption
                RSA Public-Key: (4096 bit)
                Modulus:
                    00:f9:40:f3:d7:82:b5:98:30:d8:3c:dc:25:bd:61:
                    dd:c5:54:0e:07:2f:eb:ba:dc:ab:e2:e9:c0:9e:39:
                    fc:e1:75:2f:9b:d8:96:ff:a8:a8:49:8f:be:de:c3:
                    25:98:3f:6a:6e:d7:13:32:04:c3:71:6c:4e:d3:62:
                    26:a0:e5:a3:74:7c:fd:e2:a1:41:58:32:cb:d7:d7:
                    61:a9:64:aa:d2:08:1d:00:55:6e:58:d8:fa:f1:e4:
                    1f:85:61:cd:45:55:fc:a4:aa:f6:5d:8f:52:12:e0:
                    18:10:40:4a:2b:82:2f:55:0c:ba:05:e0:42:cc:cd:
                    36:99:e3:22:59:f7:13:27:d3:38:79:6c:87:97:0e:
                    fb:d7:b2:b7:f1:85:4a:fe:6c:88:c7:de:53:ce:36:
                    6f:19:e3:ea:0e:6c:72:97:9c:59:ab:b8:1b:1d:f4:
                    0e:1c:a8:79:2f:b9:b3:90:5b:5b:6d:46:80:23:cb:
                    f0:8e:a8:bc:af:cb:55:1f:1a:73:86:f3:d7:76:1b:
                    4c:3a:f4:73:0f:e0:b8:63:e6:42:e7:d7:0b:d4:bc:
                    8c:a6:35:f4:e4:75:67:8d:44:1c:6d:23:a8:00:b3:
                    42:45:50:81:ff:02:b6:08:3d:3b:94:01:b4:c8:c7:
                    76:d9:85:7f:d1:71:19:5f:82:8f:e2:e0:d3:58:88:
                    43:e7:fb:11:64:86:58:61:0e:dd:ea:98:06:75:ef:
                    23:85:91:bc:46:5a:b9:5f:31:61:e1:32:ca:1b:cc:
                    b7:35:d7:9a:d1:8a:2a:6f:d7:73:ae:1e:f1:5f:af:
                    90:55:c6:95:ee:b2:98:37:cb:12:64:7a:1f:da:c7:
                    ae:20:2e:81:e0:40:ad:1d:b8:bb:ee:a0:06:a0:78:
                    b1:3a:15:f9:72:ab:ef:e9:95:4b:cc:23:dc:6b:18:
                    f5:ba:d3:97:4a:07:63:ac:c0:73:08:36:f1:b9:85:
                    32:7f:60:a7:b8:58:c0:13:3c:b6:53:6f:22:7f:ee:
                    ab:7e:c6:e3:b1:70:18:0f:fa:78:0b:26:ce:96:14:
                    89:80:c7:0e:e4:d6:39:e1:c8:cc:f5:00:b0:9e:ab:
                    c6:b9:54:75:c4:62:b4:7d:27:66:04:5f:18:88:4e:
                    dc:89:04:9b:5c:fe:6f:57:6b:90:d6:e7:47:43:2d:
                    29:7e:3b:a0:bb:f0:d8:c2:ae:7d:5e:ac:e4:a5:28:
                    a9:38:e9:75:14:09:cc:22:dd:62:54:7e:44:90:bf:
                    bf:90:01:b9:1b:74:98:05:55:bb:d5:db:95:9c:0f:
                    23:a9:97:a3:fd:77:7e:bc:00:ca:73:4d:2f:cc:65:
                    f1:9a:d5:29:fd:28:ac:68:4b:ff:35:14:b4:29:b3:
                    74:45:19
                Exponent: 65537 (0x10001)
        X509v3 extensions:
            X509v3 Key Usage: critical
                Certificate Sign, CRL Sign
            X509v3 Basic Constraints: critical
                CA:TRUE, pathlen:1
            X509v3 Subject Key Identifier: 
                77:24:DE:90:AE:42:4D:F5:66:96:87:28:71:B7:8A:CC:D6:C9:D9:B0
            X509v3 Authority Key Identifier: 
                keyid:F2:A2:EF:35:9D:07:FE:97:88:DC:20:8D:F1:C3:A4:9C:60:5C:37:50

            Authority Information Access: 
                CA Issuers - URI:https://elbosso.github.io/x509//Dama11_External_Party_A_Root_CA-ca.crt

            X509v3 CRL Distribution Points: 

                Full Name:
                  URI:https://elbosso.github.io/x509//Dama11_External_Party_A_Root_CA-ca.crl

    Signature Algorithm: sha512WithRSAEncryption
         6f:5d:4f:91:ff:57:dd:19:28:12:c8:5c:61:81:65:f7:63:12:
         f9:0b:af:24:8f:13:24:94:5d:de:72:71:2e:a6:ca:fc:f9:71:
         dd:a6:c6:12:36:fa:fa:f5:05:b4:e7:e3:0c:78:89:4a:35:60:
         f4:0e:d5:b7:e3:15:84:bb:3d:ba:57:60:9c:b8:c4:1f:9f:23:
         c2:bc:5e:e7:ac:e4:4d:29:fc:3f:74:c2:7f:ad:d4:da:77:db:
         d1:2c:65:b0:bd:8f:a5:ea:42:69:fa:7e:af:d3:3a:b6:0c:82:
         cf:73:6c:b1:e9:fb:4f:9a:2e:31:1e:b2:ab:c3:a8:af:c1:fe:
         81:96:be:7f:73:58:ff:3a:cb:c0:d6:c5:c3:3a:bf:09:a3:0a:
         e7:ae:10:3e:71:1b:14:98:d4:b9:68:65:74:bc:11:3c:31:f0:
         9b:a6:03:11:b7:f7:57:88:9d:49:32:a6:ae:82:5f:2c:c5:64:
         57:0f:49:e2:ad:c8:70:63:c8:3d:51:98:bc:2f:b7:09:ca:60:
         73:b7:dc:aa:0f:44:bd:83:43:58:aa:32:eb:10:a6:f8:1c:09:
         b5:96:76:42:72:d2:85:d1:d2:1b:c0:af:c9:81:90:90:51:04:
         49:58:05:e0:69:46:09:12:f2:6c:c0:7c:34:f0:a5:e6:50:e4:
         ee:0d:87:73:cb:9b:71:41:7e:75:ed:9d:60:fa:00:c3:da:00:
         94:46:d9:84:db:b6:3e:1d:73:79:12:0a:9b:a9:09:0b:65:ee:
         bf:7b:37:28:89:b6:45:7e:89:93:dc:29:ed:67:eb:a8:a7:b8:
         59:f9:5f:59:74:d0:5a:a8:20:79:13:02:ce:71:30:1f:21:dd:
         ab:53:1a:5c:05:e4:79:cf:dc:8c:92:2d:55:23:30:b5:cf:36:
         dd:38:fe:58:c3:4f:85:1f:6f:1d:1f:9a:5e:5a:2f:26:79:46:
         eb:53:62:b2:ee:51:4d:e7:ee:7b:5c:0d:8b:0d:9d:f1:7b:dc:
         67:1d:51:e8:81:a6:c5:07:ba:cd:6b:56:66:a1:2f:0a:f7:54:
         f4:4d:a5:b7:e0:44:5f:a7:fe:00:68:c0:94:b0:27:30:cb:e1:
         0e:0e:22:48:a1:c9:35:36:6b:aa:6b:0e:46:79:4f:55:36:d7:
         27:62:b3:2d:b0:8d:65:f9:0b:c0:a5:98:40:18:97:05:52:08:
         ca:e3:41:8c:07:c2:03:98:98:1e:5e:17:5f:d3:a4:db:76:b8:
         2b:4a:32:ff:fe:be:af:82:95:d1:e6:b6:2c:f0:6a:b1:d3:f6:
         09:16:f3:a3:9e:c8:21:a3:ea:9d:dc:2d:dc:f6:6d:9b:ba:41:
         fb:f7:6d:00:49:18:d5:4e
-----BEGIN CERTIFICATE-----
MIIGgzCCBGugAwIBAgIBATANBgkqhkiG9w0BAQ0FADBuMQswCQYDVQQGEwJERTEZ
MBcGA1UECgwQRGFtYXNjaGtlc3RyLiAxMTEWMBQGA1UECwwNQXJiZWl0c3ppbW1l
cjEsMCoGA1UEAwwjRGFtYTExIExhYiBFeHRlcm5hbCBQYXJ0eSBBIFJvb3QgQ0Ew
HhcNMjIxMjA5MTIxNzMwWhcNMjUxMjA5MjM1OTU5WjBzMQswCQYDVQQGEwJERTEZ
MBcGA1UECgwQRGFtYXNjaGtlc3RyLiAxMTEWMBQGA1UECwwNQXJiZWl0c3ppbW1l
cjExMC8GA1UEAwwoRGFtYTExIExhYiBFeHQgUGFydHkgQSBJbnRlcm1lZGlhcnkg
MSBDQTCCAiIwDQYJKoZIhvcNAQEBBQADggIPADCCAgoCggIBAPlA89eCtZgw2Dzc
Jb1h3cVUDgcv67rcq+LpwJ45/OF1L5vYlv+oqEmPvt7DJZg/am7XEzIEw3FsTtNi
JqDlo3R8/eKhQVgyy9fXYalkqtIIHQBVbljY+vHkH4VhzUVV/KSq9l2PUhLgGBBA
SiuCL1UMugXgQszNNpnjIln3EyfTOHlsh5cO+9eyt/GFSv5siMfeU842bxnj6g5s
cpecWau4Gx30DhyoeS+5s5BbW21GgCPL8I6ovK/LVR8ac4bz13YbTDr0cw/guGPm
QufXC9S8jKY19OR1Z41EHG0jqACzQkVQgf8Ctgg9O5QBtMjHdtmFf9FxGV+Cj+Lg
01iIQ+f7EWSGWGEO3eqYBnXvI4WRvEZauV8xYeEyyhvMtzXXmtGKKm/Xc64e8V+v
kFXGle6ymDfLEmR6H9rHriAugeBArR24u+6gBqB4sToV+XKr7+mVS8wj3GsY9brT
l0oHY6zAcwg28bmFMn9gp7hYwBM8tlNvIn/uq37G47FwGA/6eAsmzpYUiYDHDuTW
OeHIzPUAsJ6rxrlUdcRitH0nZgRfGIhO3IkEm1z+b1drkNbnR0MtKX47oLvw2MKu
fV6s5KUoqTjpdRQJzCLdYlR+RJC/v5ABuRt0mAVVu9XblZwPI6mXo/13frwAynNN
L8xl8ZrVKf0orGhL/zUUtCmzdEUZAgMBAAGjggElMIIBITAOBgNVHQ8BAf8EBAMC
AQYwEgYDVR0TAQH/BAgwBgEB/wIBATAdBgNVHQ4EFgQUdyTekK5CTfVmlococbeK
zNbJ2bAwHwYDVR0jBBgwFoAU8qLvNZ0H/peI3CCN8cOknGBcN1AwYgYIKwYBBQUH
AQEEVjBUMFIGCCsGAQUFBzAChkZodHRwczovL2VsYm9zc28uZ2l0aHViLmlvL3g1
MDkvL0RhbWExMV9FeHRlcm5hbF9QYXJ0eV9BX1Jvb3RfQ0EtY2EuY3J0MFcGA1Ud
HwRQME4wTKBKoEiGRmh0dHBzOi8vZWxib3Nzby5naXRodWIuaW8veDUwOS8vRGFt
YTExX0V4dGVybmFsX1BhcnR5X0FfUm9vdF9DQS1jYS5jcmwwDQYJKoZIhvcNAQEN
BQADggIBAG9dT5H/V90ZKBLIXGGBZfdjEvkLrySPEySUXd5ycS6myvz5cd2mxhI2
+vr1BbTn4wx4iUo1YPQO1bfjFYS7PbpXYJy4xB+fI8K8Xues5E0p/D90wn+t1Np3
29EsZbC9j6XqQmn6fq/TOrYMgs9zbLHp+0+aLjEesqvDqK/B/oGWvn9zWP86y8DW
xcM6vwmjCueuED5xGxSY1LloZXS8ETwx8JumAxG391eInUkypq6CXyzFZFcPSeKt
yHBjyD1RmLwvtwnKYHO33KoPRL2DQ1iqMusQpvgcCbWWdkJy0oXR0hvAr8mBkJBR
BElYBeBpRgkS8mzAfDTwpeZQ5O4Nh3PLm3FBfnXtnWD6AMPaAJRG2YTbtj4dc3kS
CpupCQtl7r97NyiJtkV+iZPcKe1n66inuFn5X1l00FqoIHkTAs5xMB8h3atTGlwF
5HnP3IySLVUjMLXPNt04/ljDT4Ufbx0fml5aLyZ5RutTYrLuUU3n7ntcDYsNnfF7
3GcdUeiBpsUHus1rVmahLwr3VPRNpbfgRF+n/gBowJSwJzDL4Q4OIkihyTU2a6pr
DkZ5T1U21ydisy2wjWX5C8ClmEAYlwVSCMrjQYwHwgOYmB5eF1/TpNt2uCtKMv/+
vq+CldHmtizwarHT9gkW86OeyCGj6p3cLdz2bZu6Qfv3bQBJGNVO
-----END CERTIFICATE-----
