Certificate:
    Data:
        Version: 3 (0x2)
        Serial Number: 3 (0x3)
        Signature Algorithm: sha512WithRSAEncryption
        Issuer: C=DE, O=Damaschkestr. 11, OU=Arbeitszimmer, CN=Dama11 Lab Intermediary CA
        Validity
            Not Before: Oct 27 07:22:31 2019 GMT
            Not After : Dec 31 23:59:59 2023 GMT
        Subject: C=DE, O=Damaschkestr. 11, OU=Arbeitszimmer, CN=Dama11 Lab Component CA
        Subject Public Key Info:
            Public Key Algorithm: rsaEncryption
                RSA Public-Key: (4096 bit)
                Modulus:
                    00:b3:03:c1:ea:06:29:21:18:26:68:53:34:4e:af:
                    fd:92:f2:f9:1d:31:65:55:b5:4c:26:8d:d7:64:a2:
                    e8:b7:7c:fd:53:6e:77:be:b9:bb:63:0d:35:6d:8d:
                    7e:74:16:fe:f5:36:d4:00:c4:5b:92:54:59:da:7c:
                    c2:20:c6:35:b9:88:b6:79:a8:3e:de:1c:d4:ed:21:
                    4e:c5:0c:ea:b8:8c:5d:3c:94:3d:52:29:c8:f4:f4:
                    01:2f:59:bd:f8:91:51:4b:74:3c:c1:24:0f:03:c1:
                    2a:8b:f2:21:54:4d:14:c2:2f:bd:78:93:77:3d:32:
                    07:3d:af:64:a4:8f:0a:b1:d3:6d:26:ba:92:0b:93:
                    23:7a:b6:97:c6:d8:89:6f:00:cd:0e:bb:03:54:5e:
                    6d:3d:29:3a:e5:92:6c:7d:37:d5:c0:79:68:f0:d0:
                    26:95:7c:45:6f:21:34:52:e2:c7:ba:64:7f:33:b1:
                    91:d5:b8:e8:46:b3:00:cf:9b:eb:51:69:a6:f9:b4:
                    8a:0f:95:ed:a2:ba:d0:97:70:d3:4e:ef:35:99:83:
                    10:a1:31:af:e7:92:10:ba:6b:33:10:37:b1:07:c4:
                    d1:b9:ff:84:ef:31:7a:52:37:55:23:47:8b:2d:ea:
                    97:a9:07:d2:b8:33:9c:f9:da:5a:2e:1d:b2:67:a4:
                    0d:6c:cf:ef:ae:c4:5b:05:8c:94:29:ca:0e:43:56:
                    e2:3e:69:7a:b3:3d:d7:07:25:8d:97:a9:39:20:5d:
                    5a:3a:3f:9e:5e:eb:7f:a8:45:28:e4:80:1b:99:76:
                    47:af:5c:3d:2c:cc:8d:8b:a3:86:35:f4:8a:3e:6a:
                    93:a3:97:9d:94:e1:97:a3:2e:67:56:c8:4e:d2:5d:
                    8b:ea:73:9a:3f:55:ff:df:cd:62:c0:43:4d:a7:f5:
                    a5:51:40:75:6d:97:01:e1:09:f3:0f:35:74:34:23:
                    d0:1b:ff:ff:b0:7d:76:b3:ce:aa:aa:f5:35:d4:be:
                    07:dd:f0:dd:c4:53:7d:39:05:32:79:de:b4:20:5c:
                    41:82:56:15:1a:f7:6f:8c:2c:55:9c:53:9d:16:c9:
                    1e:c1:99:ff:5e:85:31:80:4e:84:8b:22:9d:01:f1:
                    01:7b:dc:30:ca:24:ac:2a:7b:cb:42:57:14:c1:77:
                    28:94:9a:9d:94:42:60:02:f1:23:fd:67:d0:fc:8f:
                    0a:33:17:ac:7f:bf:48:29:7e:8f:86:d0:2c:22:df:
                    29:bc:aa:46:db:aa:4e:03:bb:12:ef:cb:09:1c:60:
                    d1:3c:d3:f5:68:2d:2b:7a:e0:b4:44:62:5b:25:9e:
                    5c:67:a2:cc:15:c2:61:ca:53:84:ce:e4:de:45:6e:
                    4d:9a:c9
                Exponent: 65537 (0x10001)
        X509v3 extensions:
            X509v3 Key Usage: critical
                Certificate Sign, CRL Sign
            X509v3 Basic Constraints: critical
                CA:TRUE, pathlen:0
            X509v3 Subject Key Identifier: 
                D7:68:B6:DC:A5:51:F1:D3:0C:DD:29:CD:40:04:3B:E1:52:D2:DF:3F
            X509v3 Authority Key Identifier: 
                keyid:5F:17:9E:B3:3D:7C:34:C0:A1:9B:73:99:DA:3C:34:44:74:57:80:16

            Authority Information Access: 
                CA Issuers - URI:https://elbosso.github.io/x509//Dama11_Intermediary_CA-ca.crt

            X509v3 CRL Distribution Points: 

                Full Name:
                  URI:https://elbosso.github.io/x509//Dama11_Intermediary_CA-ca.crl

    Signature Algorithm: sha512WithRSAEncryption
         7b:f2:ce:21:d9:9e:7f:de:b1:33:59:69:ad:e7:ba:2f:8c:2b:
         4b:37:70:d1:ee:9b:21:dd:94:2e:17:a5:35:89:e3:14:af:fb:
         c4:70:23:ee:85:c0:2e:df:e9:ee:ed:b2:f5:69:80:4b:b6:f1:
         58:9d:53:50:3f:0e:d5:3e:ea:9d:2a:d0:1d:90:16:42:f7:d2:
         78:3b:91:67:d5:da:d3:49:ee:18:64:3f:58:77:49:43:bd:35:
         67:a3:dc:78:e7:02:d3:97:5c:b3:31:a6:16:81:81:71:44:6c:
         ce:02:a0:d3:62:3b:2d:28:a3:4d:35:87:67:eb:20:48:d0:c1:
         19:b2:fa:ef:64:a0:24:27:3c:c3:45:80:c9:96:ae:01:16:a5:
         a5:23:c4:1e:36:a4:f9:04:93:d4:be:86:72:c6:e8:05:ea:c4:
         33:2e:6d:2a:3d:99:99:eb:32:62:ee:34:4b:1b:75:59:f0:e5:
         4f:6e:c6:13:2f:73:f1:8d:57:a2:7a:77:26:39:e2:6f:21:62:
         84:07:96:38:77:f8:ad:a5:32:52:47:37:d6:cc:a8:63:12:c9:
         b0:30:99:61:98:37:c2:11:37:f9:1d:f4:7f:f0:6e:83:fa:b0:
         fe:6d:ef:15:f0:43:47:61:c5:6d:01:b6:a0:51:03:a7:1d:2f:
         25:6a:36:4e:c2:4c:88:ad:43:69:6c:86:5b:08:44:f9:d1:55:
         a6:a3:13:7d:51:28:9c:5e:e1:34:e9:34:e7:f8:10:18:08:ae:
         1c:2d:34:d3:00:e5:8e:95:e4:ef:49:16:5e:a8:36:04:be:fb:
         55:9a:ac:67:44:92:89:8a:8d:f1:68:88:5c:63:e1:c8:f6:f1:
         2d:77:bf:f1:c4:cc:8a:90:0e:38:f1:0b:56:79:52:5d:f9:b7:
         a0:4b:d1:ab:b1:70:cf:de:9e:c6:44:ac:74:a0:df:38:00:5d:
         f9:25:49:83:ca:4b:43:40:37:25:d1:af:e9:04:11:6c:91:12:
         bb:89:06:4a:9a:97:f2:fe:2e:fe:60:a1:e2:19:08:ca:ef:30:
         ee:b1:4f:81:4d:1a:87:20:8c:57:f8:e5:72:1b:cc:90:47:1c:
         05:3d:7d:5d:21:64:cd:27:02:cb:fb:3e:7d:8d:5e:5a:e2:6a:
         08:03:e9:5c:40:78:af:44:ac:62:4d:fd:7d:68:df:11:65:63:
         86:de:3b:70:69:df:2f:90:0f:92:fb:3f:c9:93:86:6a:82:28:
         59:ac:a5:02:4f:eb:25:b1:40:a6:f2:8a:93:b0:4f:27:80:19:
         37:69:a9:89:d0:b8:8e:d0:2d:30:41:52:60:dc:18:0b:df:a4:
         6a:85:06:6f:cd:c3:f7:2f
-----BEGIN CERTIFICATE-----
MIIGVzCCBD+gAwIBAgIBAzANBgkqhkiG9w0BAQ0FADBlMQswCQYDVQQGEwJERTEZ
MBcGA1UECgwQRGFtYXNjaGtlc3RyLiAxMTEWMBQGA1UECwwNQXJiZWl0c3ppbW1l
cjEjMCEGA1UEAwwaRGFtYTExIExhYiBJbnRlcm1lZGlhcnkgQ0EwHhcNMTkxMDI3
MDcyMjMxWhcNMjMxMjMxMjM1OTU5WjBiMQswCQYDVQQGEwJERTEZMBcGA1UECgwQ
RGFtYXNjaGtlc3RyLiAxMTEWMBQGA1UECwwNQXJiZWl0c3ppbW1lcjEgMB4GA1UE
AwwXRGFtYTExIExhYiBDb21wb25lbnQgQ0EwggIiMA0GCSqGSIb3DQEBAQUAA4IC
DwAwggIKAoICAQCzA8HqBikhGCZoUzROr/2S8vkdMWVVtUwmjddkoui3fP1Tbne+
ubtjDTVtjX50Fv71NtQAxFuSVFnafMIgxjW5iLZ5qD7eHNTtIU7FDOq4jF08lD1S
Kcj09AEvWb34kVFLdDzBJA8DwSqL8iFUTRTCL714k3c9Mgc9r2Skjwqx020mupIL
kyN6tpfG2IlvAM0OuwNUXm09KTrlkmx9N9XAeWjw0CaVfEVvITRS4se6ZH8zsZHV
uOhGswDPm+tRaab5tIoPle2iutCXcNNO7zWZgxChMa/nkhC6azMQN7EHxNG5/4Tv
MXpSN1UjR4st6pepB9K4M5z52louHbJnpA1sz++uxFsFjJQpyg5DVuI+aXqzPdcH
JY2XqTkgXVo6P55e63+oRSjkgBuZdkevXD0szI2Lo4Y19Io+apOjl52U4ZejLmdW
yE7SXYvqc5o/Vf/fzWLAQ02n9aVRQHVtlwHhCfMPNXQ0I9Ab//+wfXazzqqq9TXU
vgfd8N3EU305BTJ53rQgXEGCVhUa92+MLFWcU50WyR7Bmf9ehTGAToSLIp0B8QF7
3DDKJKwqe8tCVxTBdyiUmp2UQmAC8SP9Z9D8jwozF6x/v0gpfo+G0Cwi3ym8qkbb
qk4DuxLvywkcYNE80/VoLSt64LREYlslnlxnoswVwmHKU4TO5N5Fbk2ayQIDAQAB
o4IBEzCCAQ8wDgYDVR0PAQH/BAQDAgEGMBIGA1UdEwEB/wQIMAYBAf8CAQAwHQYD
VR0OBBYEFNdottylUfHTDN0pzUAEO+FS0t8/MB8GA1UdIwQYMBaAFF8XnrM9fDTA
oZtzmdo8NER0V4AWMFkGCCsGAQUFBwEBBE0wSzBJBggrBgEFBQcwAoY9aHR0cHM6
Ly9lbGJvc3NvLmdpdGh1Yi5pby94NTA5Ly9EYW1hMTFfSW50ZXJtZWRpYXJ5X0NB
LWNhLmNydDBOBgNVHR8ERzBFMEOgQaA/hj1odHRwczovL2VsYm9zc28uZ2l0aHVi
LmlvL3g1MDkvL0RhbWExMV9JbnRlcm1lZGlhcnlfQ0EtY2EuY3JsMA0GCSqGSIb3
DQEBDQUAA4ICAQB78s4h2Z5/3rEzWWmt57ovjCtLN3DR7psh3ZQuF6U1ieMUr/vE
cCPuhcAu3+nu7bL1aYBLtvFYnVNQPw7VPuqdKtAdkBZC99J4O5Fn1drTSe4YZD9Y
d0lDvTVno9x45wLTl1yzMaYWgYFxRGzOAqDTYjstKKNNNYdn6yBI0MEZsvrvZKAk
JzzDRYDJlq4BFqWlI8QeNqT5BJPUvoZyxugF6sQzLm0qPZmZ6zJi7jRLG3VZ8OVP
bsYTL3PxjVeiencmOeJvIWKEB5Y4d/itpTJSRzfWzKhjEsmwMJlhmDfCETf5HfR/
8G6D+rD+be8V8ENHYcVtAbagUQOnHS8lajZOwkyIrUNpbIZbCET50VWmoxN9USic
XuE06TTn+BAYCK4cLTTTAOWOleTvSRZeqDYEvvtVmqxnRJKJio3xaIhcY+HI9vEt
d7/xxMyKkA448QtWeVJd+begS9GrsXDP3p7GRKx0oN84AF35JUmDyktDQDcl0a/p
BBFskRK7iQZKmpfy/i7+YKHiGQjK7zDusU+BTRqHIIxX+OVyG8yQRxwFPX1dIWTN
JwLL+z59jV5a4moIA+lcQHivRKxiTf19aN8RZWOG3jtwad8vkA+S+z/Jk4ZqgihZ
rKUCT+slsUCm8oqTsE8ngBk3aamJ0LiO0C0wQVJg3BgL36RqhQZvzcP3Lw==
-----END CERTIFICATE-----
