Certificate:
    Data:
        Version: 3 (0x2)
        Serial Number: 1 (0x1)
        Signature Algorithm: sha512WithRSAEncryption
        Issuer: C=DE, O=Damaschkestr. 11, OU=Arbeitszimmer, CN=Dama11 Lab External Party Root CA
        Validity
            Not Before: Dec  9 11:56:04 2022 GMT
            Not After : Dec  9 23:59:59 2025 GMT
        Subject: C=DE, O=Damaschkestr. 11, OU=Arbeitszimmer, CN=Dama11 Lab External Party A Root CA
        Subject Public Key Info:
            Public Key Algorithm: rsaEncryption
                RSA Public-Key: (4096 bit)
                Modulus:
                    00:c7:ce:5b:d3:48:8f:70:b2:28:ea:2d:93:20:42:
                    0d:3b:a2:7f:0a:63:e9:f6:60:76:7b:7e:1a:76:30:
                    91:46:32:31:5f:98:d2:93:0a:b3:21:f5:7d:77:13:
                    f4:f6:61:3d:1a:87:b8:86:42:b7:26:2b:c2:d5:ec:
                    45:f1:40:38:c6:83:71:4a:b4:fe:f5:8a:4e:7a:9d:
                    f1:7e:e4:e8:c6:5c:29:3b:46:df:c5:60:33:8c:11:
                    a5:2c:fa:54:74:40:e8:7a:56:7a:5a:27:56:f9:b9:
                    df:4c:d7:04:2f:48:77:a8:ea:21:cb:17:a3:de:66:
                    2f:7a:02:0f:09:8e:60:db:b6:f1:d1:14:80:bc:9f:
                    42:3a:b1:8d:c1:20:0d:ba:60:aa:ae:d7:e1:9b:c9:
                    3f:fb:4c:03:85:99:a2:fe:ce:dc:c3:9f:64:79:81:
                    ce:ce:47:81:d1:34:3f:a0:82:05:a3:9a:ca:3b:6c:
                    bc:fe:bd:3f:10:77:bb:7c:84:3e:98:d1:77:15:fe:
                    67:be:d7:58:7c:94:c6:69:c3:4c:b5:12:6e:a1:0d:
                    ee:e8:79:a2:ed:bc:33:a0:bd:1e:c3:d0:3e:e5:14:
                    ee:52:5f:7e:e5:f6:6e:d9:89:69:75:ba:81:70:ab:
                    8b:92:9f:66:97:98:7b:52:03:27:c0:67:e0:3f:f7:
                    86:cf:eb:d7:1e:ff:7c:07:93:9d:b1:5a:a7:aa:bb:
                    5f:01:dc:f7:79:37:b0:b3:48:22:18:21:6e:7c:56:
                    61:95:a7:e1:90:95:12:74:a2:a4:d9:74:ef:f3:01:
                    ee:64:6c:28:2c:f3:ed:4f:eb:c2:3c:71:e7:e3:85:
                    2e:c8:6a:3c:46:3a:68:9e:01:b0:17:49:8f:24:76:
                    dc:17:55:03:d0:f2:3a:fe:a3:a0:63:fd:63:d2:cb:
                    f5:38:24:40:87:89:7c:b9:54:ec:4c:2e:66:9c:5f:
                    a6:2a:d5:ae:d9:3a:0f:e3:0f:60:28:ca:cc:e2:33:
                    af:e6:02:fb:ff:5d:32:37:8a:1d:19:87:5d:a9:3d:
                    35:30:01:32:17:b0:09:06:2b:7e:f8:d3:1c:0a:76:
                    97:59:3d:0e:33:28:ad:4c:9f:78:24:d5:b3:29:ce:
                    e4:05:2f:00:6a:07:9a:4c:7f:e0:c3:49:38:b6:85:
                    9e:5b:10:dc:a2:f4:08:cb:7e:61:be:e9:70:12:a4:
                    08:1f:85:01:49:f8:17:3f:c5:56:7c:bf:8b:d6:70:
                    8b:38:a4:ec:b1:68:d0:db:c6:f8:bf:3a:1b:30:d6:
                    f7:13:de:58:50:86:b0:c0:ff:27:b4:0b:01:54:7f:
                    3c:f3:d1:b6:9b:f6:06:48:7b:c5:83:35:b2:b4:9b:
                    22:d0:29
                Exponent: 65537 (0x10001)
        X509v3 extensions:
            X509v3 Key Usage: critical
                Certificate Sign, CRL Sign
            X509v3 Basic Constraints: critical
                CA:TRUE, pathlen:1
            X509v3 Subject Key Identifier: 
                F2:A2:EF:35:9D:07:FE:97:88:DC:20:8D:F1:C3:A4:9C:60:5C:37:50
            X509v3 Authority Key Identifier: 
                keyid:5E:95:AC:02:31:FA:5D:9B:AB:F6:4C:76:E5:E0:FE:F9:EA:E5:37:FC

            Authority Information Access: 
                CA Issuers - URI:https://elbosso.github.io/x509//Dama11_External_Party_Root_CA-ca.crt

            X509v3 CRL Distribution Points: 

                Full Name:
                  URI:https://elbosso.github.io/x509//Dama11_External_Party_Root_CA-ca.crl

    Signature Algorithm: sha512WithRSAEncryption
         0f:2a:08:8f:4c:59:5d:a0:de:55:48:5d:69:89:d7:f0:12:a4:
         fc:b1:95:da:20:0a:e9:b7:98:9a:d3:ee:f5:75:ed:f3:bd:a5:
         45:91:02:67:ab:54:08:e0:e5:ac:f5:6b:dd:01:d2:8b:4d:42:
         73:ab:9e:89:e0:e7:16:17:0a:94:af:ac:5c:46:b7:4f:54:74:
         51:51:a3:3f:e2:e6:e8:80:1d:c8:25:c5:91:e8:bf:df:7f:56:
         9b:54:fb:ee:53:99:6a:7b:a9:76:fe:aa:a1:a8:d3:c2:13:27:
         28:fd:05:e3:04:2c:a3:22:e7:66:5e:57:c4:52:7d:12:1a:d7:
         e7:21:05:e1:26:e2:c0:de:2b:6b:67:90:79:ea:41:9a:38:94:
         01:de:0e:3e:20:d8:0c:bf:5f:32:e5:a1:ad:b7:43:50:a8:1b:
         b1:07:52:ae:00:97:ea:5d:af:77:ff:5e:3e:85:48:99:5d:48:
         24:9f:4d:03:e6:c0:6f:7f:e8:f7:8e:42:52:1d:79:9b:79:ef:
         8e:6b:f1:6b:76:da:45:96:a6:1d:36:dc:a8:89:93:1e:61:d0:
         b4:15:cb:51:f8:b9:b6:15:b6:1f:92:7c:51:46:7f:2f:ca:15:
         a7:61:72:bf:7f:9f:c9:80:55:c7:04:6f:44:7b:64:ce:58:0b:
         7f:ec:2a:c1:59:00:ce:8e:ba:c6:4f:09:15:f7:98:9d:b9:bc:
         b3:83:cd:2f:d8:d0:06:f3:ba:b0:c6:8c:08:5c:42:74:fc:6b:
         49:69:da:65:4a:33:d0:ad:cb:46:1b:26:49:e4:13:12:b9:ac:
         dd:8b:95:92:4e:4f:ec:6f:b5:af:3a:b2:b5:5e:88:7a:58:7a:
         5f:6c:3b:19:33:87:3b:ff:11:ae:75:5b:0c:57:c7:46:89:58:
         62:4a:71:3e:3a:99:ba:de:1d:a2:34:26:f5:87:80:17:4e:c5:
         b7:b1:c1:5d:97:6c:e6:5c:5f:07:f6:dc:b8:ae:c4:95:e9:9c:
         6a:61:94:5a:36:11:15:f3:da:5b:ce:61:a1:b4:6f:50:b5:72:
         d5:4d:05:fc:ab:3e:e1:c1:c7:0d:6f:c8:6b:62:55:8b:a9:a1:
         18:a4:3b:f9:70:14:41:9a:c7:e5:03:54:1c:82:65:59:7c:74:
         07:93:34:df:d8:77:10:cb:c3:f2:88:9e:74:72:b4:9c:68:16:
         ce:ab:b1:1e:6d:42:90:7d:47:d6:c8:74:6b:6f:1e:5e:13:44:
         e1:ea:e6:25:c3:13:e2:51:10:3f:79:c4:7e:8e:8f:47:14:c9:
         9c:58:1d:d5:a1:09:92:05:e9:80:83:fc:b6:b5:17:4a:90:02:
         f3:6e:61:9e:01:42:11:37
-----BEGIN CERTIFICATE-----
MIIGeDCCBGCgAwIBAgIBATANBgkqhkiG9w0BAQ0FADBsMQswCQYDVQQGEwJERTEZ
MBcGA1UECgwQRGFtYXNjaGtlc3RyLiAxMTEWMBQGA1UECwwNQXJiZWl0c3ppbW1l
cjEqMCgGA1UEAwwhRGFtYTExIExhYiBFeHRlcm5hbCBQYXJ0eSBSb290IENBMB4X
DTIyMTIwOTExNTYwNFoXDTI1MTIwOTIzNTk1OVowbjELMAkGA1UEBhMCREUxGTAX
BgNVBAoMEERhbWFzY2hrZXN0ci4gMTExFjAUBgNVBAsMDUFyYmVpdHN6aW1tZXIx
LDAqBgNVBAMMI0RhbWExMSBMYWIgRXh0ZXJuYWwgUGFydHkgQSBSb290IENBMIIC
IjANBgkqhkiG9w0BAQEFAAOCAg8AMIICCgKCAgEAx85b00iPcLIo6i2TIEINO6J/
CmPp9mB2e34adjCRRjIxX5jSkwqzIfV9dxP09mE9Goe4hkK3JivC1exF8UA4xoNx
SrT+9YpOep3xfuToxlwpO0bfxWAzjBGlLPpUdEDoelZ6WidW+bnfTNcEL0h3qOoh
yxej3mYvegIPCY5g27bx0RSAvJ9COrGNwSANumCqrtfhm8k/+0wDhZmi/s7cw59k
eYHOzkeB0TQ/oIIFo5rKO2y8/r0/EHe7fIQ+mNF3Ff5nvtdYfJTGacNMtRJuoQ3u
6Hmi7bwzoL0ew9A+5RTuUl9+5fZu2YlpdbqBcKuLkp9ml5h7UgMnwGfgP/eGz+vX
Hv98B5OdsVqnqrtfAdz3eTews0giGCFufFZhlafhkJUSdKKk2XTv8wHuZGwoLPPt
T+vCPHHn44UuyGo8RjpongGwF0mPJHbcF1UD0PI6/qOgY/1j0sv1OCRAh4l8uVTs
TC5mnF+mKtWu2ToP4w9gKMrM4jOv5gL7/10yN4odGYddqT01MAEyF7AJBit++NMc
CnaXWT0OMyitTJ94JNWzKc7kBS8AageaTH/gw0k4toWeWxDcovQIy35hvulwEqQI
H4UBSfgXP8VWfL+L1nCLOKTssWjQ28b4vzobMNb3E95YUIawwP8ntAsBVH8889G2
m/YGSHvFgzWytJsi0CkCAwEAAaOCASEwggEdMA4GA1UdDwEB/wQEAwIBBjASBgNV
HRMBAf8ECDAGAQH/AgEBMB0GA1UdDgQWBBTyou81nQf+l4jcII3xw6ScYFw3UDAf
BgNVHSMEGDAWgBRelawCMfpdm6v2THbl4P756uU3/DBgBggrBgEFBQcBAQRUMFIw
UAYIKwYBBQUHMAKGRGh0dHBzOi8vZWxib3Nzby5naXRodWIuaW8veDUwOS8vRGFt
YTExX0V4dGVybmFsX1BhcnR5X1Jvb3RfQ0EtY2EuY3J0MFUGA1UdHwROMEwwSqBI
oEaGRGh0dHBzOi8vZWxib3Nzby5naXRodWIuaW8veDUwOS8vRGFtYTExX0V4dGVy
bmFsX1BhcnR5X1Jvb3RfQ0EtY2EuY3JsMA0GCSqGSIb3DQEBDQUAA4ICAQAPKgiP
TFldoN5VSF1pidfwEqT8sZXaIArpt5ia0+71de3zvaVFkQJnq1QI4OWs9WvdAdKL
TUJzq56J4OcWFwqUr6xcRrdPVHRRUaM/4ubogB3IJcWR6L/ff1abVPvuU5lqe6l2
/qqhqNPCEyco/QXjBCyjIudmXlfEUn0SGtfnIQXhJuLA3itrZ5B56kGaOJQB3g4+
INgMv18y5aGtt0NQqBuxB1KuAJfqXa93/14+hUiZXUgkn00D5sBvf+j3jkJSHXmb
ee+Oa/FrdtpFlqYdNtyoiZMeYdC0FctR+Lm2FbYfknxRRn8vyhWnYXK/f5/JgFXH
BG9Ee2TOWAt/7CrBWQDOjrrGTwkV95idubyzg80v2NAG87qwxowIXEJ0/GtJadpl
SjPQrctGGyZJ5BMSuazdi5WSTk/sb7WvOrK1Xoh6WHpfbDsZM4c7/xGudVsMV8dG
iVhiSnE+Opm63h2iNCb1h4AXTsW3scFdl2zmXF8H9ty4rsSV6ZxqYZRaNhEV89pb
zmGhtG9QtXLVTQX8qz7hwccNb8hrYlWLqaEYpDv5cBRBmsflA1QcgmVZfHQHkzTf
2HcQy8PyiJ50crScaBbOq7EebUKQfUfWyHRrbx5eE0Th6uYlwxPiURA/ecR+jo9H
FMmcWB3VoQmSBemAg/y2tRdKkALzbmGeAUIRNw==
-----END CERTIFICATE-----
