Certificate:
    Data:
        Version: 3 (0x2)
        Serial Number: 2 (0x2)
        Signature Algorithm: sha512WithRSAEncryption
        Issuer: C=DE, O=Damaschkestr. 11, OU=Arbeitszimmer, CN=Dama11 Lab Independent Test Root CA
        Validity
            Not Before: Dec  9 11:35:09 2022 GMT
            Not After : Dec  9 23:59:59 2025 GMT
        Subject: C=DE, O=Damaschkestr. 11, OU=Arbeitszimmer, CN=Dama11 Lab Independent Test Intermediary
        Subject Public Key Info:
            Public Key Algorithm: rsaEncryption
                RSA Public-Key: (4096 bit)
                Modulus:
                    00:d2:20:a9:bb:1b:0d:ae:fe:74:05:07:83:d1:a2:
                    fa:fc:a0:46:5f:26:34:5d:f8:df:f1:96:5d:ad:d2:
                    94:ad:5a:a6:19:9d:71:3d:36:38:8b:0c:10:b3:d1:
                    b3:44:72:a8:fb:f7:d4:cb:e8:c2:cc:f2:e3:e2:28:
                    8c:33:23:d2:f8:d1:3f:b7:c3:bc:18:80:80:fe:a9:
                    e9:19:dd:81:fc:ce:0d:40:10:2b:c5:c3:b9:c6:6b:
                    c3:af:30:b5:3e:cb:a6:d1:b8:e5:0d:a8:3c:bc:30:
                    ae:ec:a6:e8:5e:2f:e6:d1:94:7c:3c:74:af:06:dd:
                    29:59:71:bd:87:28:be:ce:49:1d:f8:36:55:84:c9:
                    3b:6e:b5:bb:df:46:10:88:92:d7:02:2d:ff:22:a1:
                    83:ff:34:82:fc:ef:2c:4c:25:5b:1b:67:8d:ba:72:
                    25:69:99:f9:96:9f:19:ee:05:b0:16:5f:d9:8a:c9:
                    5c:01:27:59:15:eb:2a:13:ef:7d:dc:78:80:8d:41:
                    25:2b:cb:e6:01:0b:f7:0e:f8:c4:d4:e5:ba:25:af:
                    87:27:66:51:79:b9:c4:eb:12:92:be:08:0d:8a:6a:
                    b7:8b:f1:8b:c9:c4:a1:83:11:0f:70:39:dc:25:1a:
                    16:98:e3:3d:20:49:07:2d:2c:cd:d6:dc:67:32:98:
                    e1:e2:36:c6:6e:a4:30:34:0b:b3:4f:01:90:8f:3f:
                    e8:0a:31:ee:b1:c1:ef:87:82:4b:e5:a7:e4:1f:9f:
                    43:3f:7a:03:0f:65:58:45:e6:51:e4:b5:59:4b:fe:
                    72:21:4f:6a:be:c2:d6:29:da:7e:ee:70:d3:3d:d2:
                    09:89:1d:f7:31:4c:6a:af:e3:5d:04:96:b5:72:24:
                    aa:e3:a8:a4:01:68:b1:d2:b5:a2:60:6f:d6:96:45:
                    14:37:d6:75:c1:4a:4c:09:23:4f:ff:54:38:e1:99:
                    90:b7:5b:c6:5a:00:58:29:b3:75:d0:e8:f6:83:a0:
                    aa:10:89:1d:3b:82:e1:e3:1d:18:10:01:86:41:84:
                    99:51:8e:cc:60:ec:d1:6e:b5:59:87:ab:0a:0c:f9:
                    f4:30:a7:15:62:a5:54:2c:24:9f:f0:50:32:b6:43:
                    5a:53:d6:be:5f:d1:c5:2d:fa:0f:1a:2a:61:48:9c:
                    57:7b:07:2f:1e:a8:b1:61:23:15:1d:86:15:5c:7d:
                    a7:e3:e1:9a:a9:c2:af:d0:78:4f:37:43:c9:6f:1a:
                    f8:42:df:81:d7:e4:5c:8c:52:1f:8f:3a:b5:81:24:
                    ec:fb:07:76:9b:14:90:b8:10:4f:95:16:e4:9c:51:
                    f2:c3:14:5a:2d:cf:15:1c:4f:1e:bb:00:cb:25:6f:
                    3f:c4:43
                Exponent: 65537 (0x10001)
        X509v3 extensions:
            X509v3 Key Usage: critical
                Certificate Sign, CRL Sign
            X509v3 Basic Constraints: critical
                CA:TRUE
            X509v3 Subject Key Identifier: 
                D5:ED:E7:D2:AA:E2:60:A3:FA:55:01:90:69:CC:0A:81:D6:83:E4:C5
            X509v3 Authority Key Identifier: 
                keyid:B8:E3:ED:38:E2:3D:91:90:34:11:7E:3B:1D:10:E2:66:F7:BC:F7:4D

            Authority Information Access: 
                CA Issuers - URI:https://elbosso.github.io/x509//Dama11_Independent_Test_Root_CA-ca.crt

            X509v3 CRL Distribution Points: 

                Full Name:
                  URI:https://elbosso.github.io/x509//Dama11_Independent_Test_Root_CA-ca.crl

    Signature Algorithm: sha512WithRSAEncryption
         2e:8b:a2:8e:22:98:f6:cc:19:66:03:07:28:53:c4:7d:65:7b:
         b0:da:64:4f:6d:23:d4:8f:cb:9a:01:c6:ce:e8:dc:d6:50:ea:
         92:e8:f1:23:f5:30:28:51:ef:a6:d3:72:71:16:e3:46:be:96:
         f1:fd:bd:4b:85:52:f7:3a:74:59:b4:ed:c1:19:4c:f7:4a:53:
         f2:57:78:9f:ca:42:18:6f:df:25:5d:97:e6:c2:90:3b:d4:02:
         45:22:bb:7e:fc:f6:ef:c9:f6:65:d9:ff:a4:c5:33:91:3d:7e:
         e9:a5:2f:d8:b4:23:ac:13:f5:0d:9e:35:22:4f:2e:f9:04:16:
         cf:57:fe:13:b0:60:ce:d8:1b:93:8f:93:ed:4c:74:22:47:f4:
         79:dd:54:cd:8c:ff:da:f4:a9:59:07:c7:d2:3a:9a:bb:8c:e4:
         9d:8f:36:6b:f6:22:76:04:2b:70:ef:2b:2f:d7:67:fa:6b:00:
         7d:3d:d1:a7:e6:64:62:a9:ad:63:cb:67:ed:f5:24:25:18:74:
         7b:46:7e:bd:8f:7b:14:0a:63:56:5d:a9:5f:90:29:09:ce:3b:
         45:27:42:1c:54:ca:2a:90:3e:42:27:87:74:c3:86:c4:d2:49:
         e2:08:34:fb:63:98:ed:41:34:0b:8f:b5:ad:8b:37:e6:5a:e3:
         42:ed:f8:92:5f:aa:5b:d5:20:6a:06:ae:2d:9e:2a:55:3c:1c:
         25:15:c3:49:73:47:13:97:fe:d6:98:89:58:c2:15:ac:1e:16:
         2a:aa:e0:d9:20:99:48:da:56:85:e9:f8:33:66:ff:8b:60:cf:
         ea:33:6c:dd:d0:4a:5a:99:cb:e3:83:d9:be:70:7b:1a:27:14:
         40:6f:4a:22:0d:ae:9a:96:5c:be:06:13:42:fe:99:4d:72:1c:
         b8:fe:a2:01:03:03:7c:59:7d:20:d0:da:29:d3:e6:4b:f9:48:
         a9:1c:55:00:fd:f8:a4:ca:69:13:60:68:82:04:c1:17:68:00:
         87:e7:c3:9c:3f:f0:15:0a:a5:26:ec:b2:ca:58:da:be:fb:0e:
         eb:20:a2:25:a1:a9:91:0b:41:65:1a:52:e8:ce:e6:15:bd:96:
         77:f4:1b:63:93:d2:e4:df:df:a9:99:4a:db:1d:16:d5:15:ac:
         12:99:98:2e:79:c5:71:c5:1e:a6:cd:f7:e3:34:ac:db:78:10:
         38:ec:c4:c1:2b:07:ae:e8:41:0e:2d:5e:4d:eb:3a:eb:d0:18:
         fd:ba:b7:9d:72:a1:fb:30:32:1a:78:ad:7c:e3:0d:73:08:fa:
         db:9d:26:11:6a:70:19:16:6c:43:bb:75:2f:68:e8:2a:e1:6d:
         55:04:a3:90:94:5e:1f:06
-----BEGIN CERTIFICATE-----
MIIGgDCCBGigAwIBAgIBAjANBgkqhkiG9w0BAQ0FADBuMQswCQYDVQQGEwJERTEZ
MBcGA1UECgwQRGFtYXNjaGtlc3RyLiAxMTEWMBQGA1UECwwNQXJiZWl0c3ppbW1l
cjEsMCoGA1UEAwwjRGFtYTExIExhYiBJbmRlcGVuZGVudCBUZXN0IFJvb3QgQ0Ew
HhcNMjIxMjA5MTEzNTA5WhcNMjUxMjA5MjM1OTU5WjBzMQswCQYDVQQGEwJERTEZ
MBcGA1UECgwQRGFtYXNjaGtlc3RyLiAxMTEWMBQGA1UECwwNQXJiZWl0c3ppbW1l
cjExMC8GA1UEAwwoRGFtYTExIExhYiBJbmRlcGVuZGVudCBUZXN0IEludGVybWVk
aWFyeTCCAiIwDQYJKoZIhvcNAQEBBQADggIPADCCAgoCggIBANIgqbsbDa7+dAUH
g9Gi+vygRl8mNF343/GWXa3SlK1aphmdcT02OIsMELPRs0RyqPv31Mvowszy4+Io
jDMj0vjRP7fDvBiAgP6p6RndgfzODUAQK8XDucZrw68wtT7LptG45Q2oPLwwruym
6F4v5tGUfDx0rwbdKVlxvYcovs5JHfg2VYTJO261u99GEIiS1wIt/yKhg/80gvzv
LEwlWxtnjbpyJWmZ+ZafGe4FsBZf2YrJXAEnWRXrKhPvfdx4gI1BJSvL5gEL9w74
xNTluiWvhydmUXm5xOsSkr4IDYpqt4vxi8nEoYMRD3A53CUaFpjjPSBJBy0szdbc
ZzKY4eI2xm6kMDQLs08BkI8/6Aox7rHB74eCS+Wn5B+fQz96Aw9lWEXmUeS1WUv+
ciFPar7C1inafu5w0z3SCYkd9zFMaq/jXQSWtXIkquOopAFosdK1omBv1pZFFDfW
dcFKTAkjT/9UOOGZkLdbxloAWCmzddDo9oOgqhCJHTuC4eMdGBABhkGEmVGOzGDs
0W61WYerCgz59DCnFWKlVCwkn/BQMrZDWlPWvl/RxS36DxoqYUicV3sHLx6osWEj
FR2GFVx9p+PhmqnCr9B4TzdDyW8a+ELfgdfkXIxSH486tYEk7PsHdpsUkLgQT5UW
5JxR8sMUWi3PFRxPHrsAyyVvP8RDAgMBAAGjggEiMIIBHjAOBgNVHQ8BAf8EBAMC
AQYwDwYDVR0TAQH/BAUwAwEB/zAdBgNVHQ4EFgQU1e3n0qriYKP6VQGQacwKgdaD
5MUwHwYDVR0jBBgwFoAUuOPtOOI9kZA0EX47HRDiZve8900wYgYIKwYBBQUHAQEE
VjBUMFIGCCsGAQUFBzAChkZodHRwczovL2VsYm9zc28uZ2l0aHViLmlvL3g1MDkv
L0RhbWExMV9JbmRlcGVuZGVudF9UZXN0X1Jvb3RfQ0EtY2EuY3J0MFcGA1UdHwRQ
ME4wTKBKoEiGRmh0dHBzOi8vZWxib3Nzby5naXRodWIuaW8veDUwOS8vRGFtYTEx
X0luZGVwZW5kZW50X1Rlc3RfUm9vdF9DQS1jYS5jcmwwDQYJKoZIhvcNAQENBQAD
ggIBAC6Loo4imPbMGWYDByhTxH1le7DaZE9tI9SPy5oBxs7o3NZQ6pLo8SP1MChR
76bTcnEW40a+lvH9vUuFUvc6dFm07cEZTPdKU/JXeJ/KQhhv3yVdl+bCkDvUAkUi
u3789u/J9mXZ/6TFM5E9fumlL9i0I6wT9Q2eNSJPLvkEFs9X/hOwYM7YG5OPk+1M
dCJH9HndVM2M/9r0qVkHx9I6mruM5J2PNmv2InYEK3DvKy/XZ/prAH090afmZGKp
rWPLZ+31JCUYdHtGfr2PexQKY1ZdqV+QKQnOO0UnQhxUyiqQPkInh3TDhsTSSeII
NPtjmO1BNAuPta2LN+Za40Lt+JJfqlvVIGoGri2eKlU8HCUVw0lzRxOX/taYiVjC
FaweFiqq4NkgmUjaVoXp+DNm/4tgz+ozbN3QSlqZy+OD2b5wexonFEBvSiINrpqW
XL4GE0L+mU1yHLj+ogEDA3xZfSDQ2inT5kv5SKkcVQD9+KTKaRNgaIIEwRdoAIfn
w5w/8BUKpSbssspY2r77DusgoiWhqZELQWUaUujO5hW9lnf0G2OT0uTf36mZStsd
FtUVrBKZmC55xXHFHqbN9+M0rNt4EDjsxMErB67oQQ4tXk3rOuvQGP26t51yofsw
Mhp4rXzjDXMI+tudJhFqcBkWbEO7dS9o6CrhbVUEo5CUXh8G
-----END CERTIFICATE-----
