Certificate:
    Data:
        Version: 3 (0x2)
        Serial Number: 8 (0x8)
        Signature Algorithm: sha512WithRSAEncryption
        Issuer: C=DE, O=Damaschkestr. 11, OU=Arbeitszimmer, CN=Dama11 Lab Intermediary Test CA
        Validity
            Not Before: Dec  9 13:54:00 2022 GMT
            Not After : Dec  9 23:59:59 2025 GMT
        Subject: C=DE, O=Damaschkestr. 11, OU=Arbeitszimmer, CN=Dama11 Lab Component Test CA
        Subject Public Key Info:
            Public Key Algorithm: rsaEncryption
                RSA Public-Key: (4096 bit)
                Modulus:
                    00:b2:26:2a:b7:d6:7a:79:9a:85:95:d9:e5:b7:07:
                    b8:ea:12:86:dc:4f:69:a3:02:f1:18:99:05:1c:91:
                    a0:f5:1e:45:e3:9c:b9:15:59:40:72:86:66:61:ac:
                    76:d8:55:73:9e:aa:28:e5:69:dc:44:f3:04:6f:e5:
                    96:af:46:3f:be:49:9a:e0:cd:06:1b:f2:08:eb:3f:
                    0f:51:fc:a5:65:a2:9c:09:3a:4b:6b:c3:a0:4b:83:
                    fd:f2:b8:84:1d:c3:94:47:7b:b5:ca:23:f1:06:4b:
                    af:d0:9c:51:74:ce:4b:7f:0e:cb:b2:3d:bc:e0:d8:
                    e3:b0:66:1b:cf:12:54:e5:21:c5:a9:af:30:9c:13:
                    da:45:c4:e9:64:de:29:60:68:ea:b6:4e:f0:5f:81:
                    2f:1f:31:ab:f8:46:04:5c:81:1d:e1:11:3a:b9:e8:
                    19:6c:57:59:6a:74:c3:f4:ac:c7:6e:a4:da:94:b4:
                    96:cc:96:24:18:15:a5:24:c4:7f:ac:f2:19:15:f0:
                    56:3e:ab:6c:f0:db:d6:dc:9f:1f:5a:7f:bd:41:46:
                    74:e4:8d:59:50:90:8c:7d:46:73:0e:29:90:75:4a:
                    40:a8:bf:27:6e:05:06:b4:1f:03:2d:66:e5:aa:88:
                    4a:84:d9:f3:a9:08:86:63:33:e3:86:63:8d:ca:e4:
                    e8:e4:2c:32:0a:9f:7a:38:33:6d:21:bf:2f:c7:a0:
                    56:62:f3:a3:4e:65:85:1c:c7:a8:39:30:fc:da:f3:
                    3f:fa:39:10:22:4f:92:44:de:e3:23:e5:6e:c5:38:
                    05:1a:a4:5e:90:ac:5c:f1:ff:97:17:55:d5:10:6b:
                    69:18:bf:8c:27:a2:ca:6a:3f:ee:80:70:99:b4:de:
                    d8:75:6b:04:f1:b9:04:70:79:60:17:2f:d0:e4:b4:
                    9f:09:3e:d7:5d:c5:c0:67:a8:b2:9e:ef:c5:ff:5f:
                    30:d9:17:b9:da:fd:45:e5:8e:51:15:48:dd:5e:d0:
                    ab:18:8a:49:5f:54:2f:00:e1:4a:e0:4e:ff:10:5d:
                    48:88:4c:db:98:13:5d:ec:8d:3a:9a:bc:84:b5:38:
                    b0:6a:c5:86:5f:84:de:72:d1:c1:cd:e0:80:72:13:
                    da:d4:f8:a2:d2:19:7f:bb:50:94:ea:5e:b4:dd:ee:
                    ea:8d:ea:d6:ab:28:30:5d:43:5a:db:f3:7f:4a:ec:
                    dd:12:92:38:d3:0b:98:0b:e5:f7:63:d4:fc:a8:58:
                    b7:83:d0:fd:b7:6e:96:89:4a:5c:c9:ca:cb:b6:48:
                    d7:6a:73:c1:9d:11:b7:32:54:a5:19:64:a1:87:2f:
                    1e:70:51:b0:c0:20:a9:72:17:5b:a2:d0:d6:84:27:
                    bd:9c:15
                Exponent: 65537 (0x10001)
        X509v3 extensions:
            X509v3 Key Usage: critical
                Certificate Sign, CRL Sign
            X509v3 Basic Constraints: critical
                CA:TRUE, pathlen:0
            X509v3 Subject Key Identifier: 
                8E:E3:1C:A5:A3:ED:35:B8:9E:61:08:03:F1:CF:54:9C:07:A4:22:1C
            X509v3 Authority Key Identifier: 
                keyid:E8:9A:25:D6:31:41:C2:C7:43:10:47:DA:64:E7:69:4A:C3:F3:4B:27

            Authority Information Access: 
                CA Issuers - URI:https://elbosso.github.io/x509//Dama11_Intermediary_Test_CA-ca.crt

            X509v3 CRL Distribution Points: 

                Full Name:
                  URI:https://elbosso.github.io/x509//Dama11_Intermediary_Test_CA-ca.crl

    Signature Algorithm: sha512WithRSAEncryption
         44:6b:ba:ed:c2:6b:69:37:71:d5:65:0e:74:a5:fc:82:81:a1:
         3d:0c:54:77:af:29:31:14:70:7d:e5:ea:0c:55:b3:a4:8f:fd:
         ab:8f:80:d0:c8:a0:72:c2:5c:64:0b:0c:a5:78:e0:67:e3:6f:
         f9:a0:a1:4a:c2:69:56:c0:09:3e:fd:fb:44:0e:78:e2:5f:f9:
         72:c6:fb:17:5c:9d:8c:f8:5e:d2:18:8a:5a:80:b0:16:ee:9e:
         0d:48:21:c0:6b:aa:2d:f5:54:09:b0:19:9f:2c:1a:ee:aa:7e:
         09:9d:22:1a:5c:d4:69:a0:0d:b2:c7:9a:47:75:eb:c0:b8:eb:
         16:1b:5a:db:06:ae:b0:f9:e0:f3:d2:30:2f:9b:3a:0a:1b:44:
         45:63:00:7c:cd:78:a8:b6:d9:8e:fb:f7:ee:aa:e5:c5:ba:ca:
         cb:3c:8f:82:54:1b:bc:1f:88:54:81:b5:14:43:f6:90:1f:2e:
         f9:d4:ff:b9:fe:f2:67:3b:7f:43:eb:57:d5:21:b9:e7:be:52:
         98:34:b7:a1:67:6e:61:77:e0:89:a8:79:75:b6:63:61:63:5f:
         b2:a8:0a:d1:74:ef:6a:db:24:fb:ff:99:44:b0:24:95:5a:ab:
         48:5f:29:fa:a5:e6:79:23:61:93:80:0c:6b:e1:c0:37:ee:43:
         23:08:df:15:92:1c:1d:d1:f3:a1:a4:08:75:e4:06:1a:c7:24:
         ae:05:ec:6a:27:a1:4d:6b:1a:fc:d4:d3:19:d1:06:c3:8d:3c:
         3d:38:78:7e:05:b4:45:55:1d:77:da:b1:0f:d5:96:7b:f3:3e:
         76:cb:9a:97:bf:4b:4d:df:0a:94:d5:72:75:04:24:d4:9b:66:
         7d:e2:b6:a9:5a:0a:a9:8a:10:a3:bb:11:81:1f:1e:d1:be:28:
         87:c5:80:b2:bc:12:bd:93:16:56:66:b4:00:7a:22:c5:6f:aa:
         82:df:dc:a3:61:55:7b:47:a1:3b:77:70:58:93:6b:e8:81:80:
         c3:b6:ba:de:e6:4e:60:be:79:f7:e8:33:49:23:4d:c8:4a:d4:
         17:60:24:c7:38:a1:71:18:40:47:05:49:ce:86:5f:d5:8d:ad:
         12:4e:d2:70:1a:4f:96:ae:15:7a:6e:bd:01:3f:d4:20:a5:28:
         d3:43:59:43:c2:76:41:e2:3a:bb:97:c4:32:1e:2b:a2:b7:3b:
         cc:8c:4e:63:33:14:51:f1:42:8c:99:4a:28:f7:08:8c:96:6c:
         39:f2:aa:47:5b:97:5c:7e:57:03:b1:c1:c9:18:27:34:1b:83:
         cf:86:ae:14:60:de:2a:1e:f6:a0:5f:0e:78:39:5a:4e:6f:aa:
         36:9c:fb:a1:83:16:28:e7
-----BEGIN CERTIFICATE-----
MIIGazCCBFOgAwIBAgIBCDANBgkqhkiG9w0BAQ0FADBqMQswCQYDVQQGEwJERTEZ
MBcGA1UECgwQRGFtYXNjaGtlc3RyLiAxMTEWMBQGA1UECwwNQXJiZWl0c3ppbW1l
cjEoMCYGA1UEAwwfRGFtYTExIExhYiBJbnRlcm1lZGlhcnkgVGVzdCBDQTAeFw0y
MjEyMDkxMzU0MDBaFw0yNTEyMDkyMzU5NTlaMGcxCzAJBgNVBAYTAkRFMRkwFwYD
VQQKDBBEYW1hc2Noa2VzdHIuIDExMRYwFAYDVQQLDA1BcmJlaXRzemltbWVyMSUw
IwYDVQQDDBxEYW1hMTEgTGFiIENvbXBvbmVudCBUZXN0IENBMIICIjANBgkqhkiG
9w0BAQEFAAOCAg8AMIICCgKCAgEAsiYqt9Z6eZqFldnltwe46hKG3E9powLxGJkF
HJGg9R5F45y5FVlAcoZmYax22FVznqoo5WncRPMEb+WWr0Y/vkma4M0GG/II6z8P
UfylZaKcCTpLa8OgS4P98riEHcOUR3u1yiPxBkuv0JxRdM5Lfw7Lsj284NjjsGYb
zxJU5SHFqa8wnBPaRcTpZN4pYGjqtk7wX4EvHzGr+EYEXIEd4RE6uegZbFdZanTD
9KzHbqTalLSWzJYkGBWlJMR/rPIZFfBWPqts8NvW3J8fWn+9QUZ05I1ZUJCMfUZz
DimQdUpAqL8nbgUGtB8DLWblqohKhNnzqQiGYzPjhmONyuTo5CwyCp96ODNtIb8v
x6BWYvOjTmWFHMeoOTD82vM/+jkQIk+SRN7jI+VuxTgFGqRekKxc8f+XF1XVEGtp
GL+MJ6LKaj/ugHCZtN7YdWsE8bkEcHlgFy/Q5LSfCT7XXcXAZ6iynu/F/18w2Re5
2v1F5Y5RFUjdXtCrGIpJX1QvAOFK4E7/EF1IiEzbmBNd7I06mryEtTiwasWGX4Te
ctHBzeCAchPa1Pii0hl/u1CU6l603e7qjerWqygwXUNa2/N/SuzdEpI40wuYC+X3
Y9T8qFi3g9D9t26WiUpcycrLtkjXanPBnRG3MlSlGWShhy8ecFGwwCCpchdbotDW
hCe9nBUCAwEAAaOCAR0wggEZMA4GA1UdDwEB/wQEAwIBBjASBgNVHRMBAf8ECDAG
AQH/AgEAMB0GA1UdDgQWBBSO4xylo+01uJ5hCAPxz1ScB6QiHDAfBgNVHSMEGDAW
gBTomiXWMUHCx0MQR9pk52lKw/NLJzBeBggrBgEFBQcBAQRSMFAwTgYIKwYBBQUH
MAKGQmh0dHBzOi8vZWxib3Nzby5naXRodWIuaW8veDUwOS8vRGFtYTExX0ludGVy
bWVkaWFyeV9UZXN0X0NBLWNhLmNydDBTBgNVHR8ETDBKMEigRqBEhkJodHRwczov
L2VsYm9zc28uZ2l0aHViLmlvL3g1MDkvL0RhbWExMV9JbnRlcm1lZGlhcnlfVGVz
dF9DQS1jYS5jcmwwDQYJKoZIhvcNAQENBQADggIBAERruu3Ca2k3cdVlDnSl/IKB
oT0MVHevKTEUcH3l6gxVs6SP/auPgNDIoHLCXGQLDKV44Gfjb/mgoUrCaVbACT79
+0QOeOJf+XLG+xdcnYz4XtIYilqAsBbung1IIcBrqi31VAmwGZ8sGu6qfgmdIhpc
1GmgDbLHmkd168C46xYbWtsGrrD54PPSMC+bOgobREVjAHzNeKi22Y779+6q5cW6
yss8j4JUG7wfiFSBtRRD9pAfLvnU/7n+8mc7f0PrV9Uhuee+Upg0t6FnbmF34Imo
eXW2Y2FjX7KoCtF072rbJPv/mUSwJJVaq0hfKfql5nkjYZOADGvhwDfuQyMI3xWS
HB3R86GkCHXkBhrHJK4F7GonoU1rGvzU0xnRBsONPD04eH4FtEVVHXfasQ/Vlnvz
PnbLmpe/S03fCpTVcnUEJNSbZn3itqlaCqmKEKO7EYEfHtG+KIfFgLK8Er2TFlZm
tAB6IsVvqoLf3KNhVXtHoTt3cFiTa+iBgMO2ut7mTmC+effoM0kjTchK1BdgJMc4
oXEYQEcFSc6GX9WNrRJO0nAaT5auFXpuvQE/1CClKNNDWUPCdkHiOruXxDIeK6K3
O8yMTmMzFFHxQoyZSij3CIyWbDnyqkdbl1x+VwOxwckYJzQbg8+GrhRg3ioe9qBf
Dng5Wk5vqjac+6GDFijn
-----END CERTIFICATE-----
