Certificate:
    Data:
        Version: 3 (0x2)
        Serial Number: 8 (0x8)
        Signature Algorithm: sha512WithRSAEncryption
        Issuer: C=DE, O=Damaschkestr. 11, OU=Arbeitszimmer, CN=Dama11 Lab Root CA
        Validity
            Not Before: Oct  5 07:00:42 2025 GMT
            Not After : Nov 30 23:59:59 2030 GMT
        Subject: C=DE, O=Damaschkestr. 11, OU=Arbeitszimmer, CN=Dama11 Lab Intermediary Test CA
        Subject Public Key Info:
            Public Key Algorithm: rsaEncryption
                Public-Key: (4096 bit)
                Modulus:
                    00:b5:af:de:98:e2:95:20:d0:d5:b1:5f:38:a4:9f:
                    0f:de:c8:79:77:55:36:b2:ca:ac:62:19:e8:ab:f6:
                    9d:01:c1:39:96:ec:96:7b:c7:3b:45:81:d2:67:d5:
                    65:f6:75:70:88:44:77:57:ad:c8:74:b5:43:9f:ca:
                    9b:3d:ac:f7:1e:52:10:2e:a8:f8:cc:39:57:52:a5:
                    af:7a:19:49:fd:03:0c:17:4c:c0:c6:97:9c:3b:0c:
                    35:32:af:16:07:f4:4a:e2:d2:42:ff:a2:8e:3c:f5:
                    02:7f:87:3a:7f:52:23:be:0c:ee:98:2b:ab:bd:bd:
                    e0:ad:88:61:1d:d6:40:bf:10:17:3b:ef:69:45:16:
                    c4:65:8b:8e:b6:e7:36:7f:75:6c:64:25:b1:b8:f7:
                    42:b4:3c:cb:58:f0:18:ec:97:a3:9b:35:ea:bd:03:
                    11:d8:3a:80:ad:ad:ba:95:9c:3c:0e:2a:16:3b:81:
                    1c:fb:74:21:5d:15:30:5f:3c:f8:66:32:85:e3:b3:
                    37:7c:af:48:11:1f:1b:73:59:9e:bd:bf:af:41:a3:
                    d2:28:c1:67:f5:b4:7e:6e:34:45:f3:4e:49:f9:c0:
                    23:bb:21:06:d1:d3:e9:c9:f9:af:59:ae:7e:45:c0:
                    91:d1:ce:e3:5f:e8:af:51:80:c4:4e:6b:52:38:6d:
                    94:c8:f5:c1:bc:a4:1c:ee:43:63:ce:61:bc:c9:37:
                    47:d8:bf:01:1c:38:31:c1:50:cd:92:0e:3e:88:7d:
                    5b:bc:0f:bd:26:18:0f:fc:39:67:f2:61:eb:4e:c7:
                    f6:52:8b:a4:8b:60:bf:1a:9e:dd:46:d2:02:da:93:
                    5f:47:6f:c7:2e:f3:84:99:87:2b:1e:15:86:1a:84:
                    39:6f:b3:d7:0b:08:1b:85:72:16:4f:e2:fa:0b:05:
                    2f:72:e5:fe:64:1c:99:7c:bc:2d:52:ff:da:ad:29:
                    a7:c7:74:c0:18:0f:65:d4:e4:f4:5f:82:05:89:b9:
                    af:b2:b8:5b:4d:e8:52:58:8d:39:15:31:90:ab:12:
                    02:54:47:17:23:39:2c:7c:12:9e:f1:ef:6d:69:cb:
                    1d:e9:31:81:70:74:f3:7c:b0:08:6a:37:4f:41:bf:
                    d7:2b:6f:9b:36:0c:79:a0:3a:17:6c:2d:47:1c:3f:
                    9f:cd:80:70:c1:aa:86:56:70:2e:5d:64:ab:a1:a4:
                    0b:9b:eb:11:e9:1c:5a:a5:db:36:9d:5e:13:df:e3:
                    5c:d0:07:f6:8e:20:58:0f:24:77:0b:d5:73:74:e5:
                    de:dd:02:f4:14:ac:8e:c6:69:e0:ee:c4:11:d4:03:
                    a2:4d:40:3c:7d:78:89:49:93:3b:34:82:4d:a7:cc:
                    0a:7c:47
                Exponent: 65537 (0x10001)
        X509v3 extensions:
            X509v3 Key Usage: critical
                Certificate Sign, CRL Sign
            X509v3 Basic Constraints: critical
                CA:TRUE
            X509v3 Subject Key Identifier: 
                E8:9A:25:D6:31:41:C2:C7:43:10:47:DA:64:E7:69:4A:C3:F3:4B:27
            X509v3 Authority Key Identifier: 
                01:B2:2D:56:3C:87:7F:A8:5F:61:BC:58:01:BF:1E:FD:4A:CA:CA:8D
            Authority Information Access: 
                CA Issuers - URI:https://elbosso.github.io/x509//Dama11_Root_CA-ca.crt
            X509v3 CRL Distribution Points: 
                Full Name:
                  URI:https://elbosso.github.io/x509//Dama11_Root_CA-ca.crl
    Signature Algorithm: sha512WithRSAEncryption
    Signature Value:
        c0:29:ae:5a:ae:1c:13:d3:ab:5c:e6:cb:52:8f:70:63:ec:e7:
        ff:d6:62:0f:50:33:12:46:a2:5a:56:0c:ac:4b:99:d1:b3:55:
        cf:41:9c:61:bc:e1:76:70:ac:07:24:f5:05:22:9e:8a:9d:63:
        27:d9:39:9f:55:5f:c9:6e:52:fa:68:ce:b1:60:f1:1a:e9:6b:
        77:21:ce:21:10:74:97:ec:56:5e:f8:8a:45:69:14:7f:4d:fd:
        54:d6:b8:96:cc:20:93:21:c4:8b:cb:1c:34:a6:16:09:4f:da:
        fa:19:c7:31:51:f7:fd:89:e0:8b:f9:61:40:7e:6a:76:bf:5f:
        34:f2:ae:1f:6a:b8:8d:f8:c0:57:a0:41:af:af:e2:a4:d8:21:
        57:e5:85:c7:89:db:64:c3:fe:45:62:99:62:a2:c7:3c:6f:63:
        80:8f:f8:a5:17:85:87:65:3a:2e:b2:88:e5:a4:e9:c0:4e:14:
        96:bd:61:f5:d4:b3:1d:1a:90:e2:ec:be:9f:01:73:bd:ba:86:
        a3:f0:c4:cf:0d:7c:95:23:9f:e2:da:cf:09:e5:7b:05:e9:00:
        c5:64:15:11:4a:be:ea:84:35:e1:e0:4a:70:37:97:2d:5e:2f:
        bb:e9:9d:79:15:57:1f:d9:b5:bb:6a:47:06:4d:77:4f:9d:a6:
        86:b3:ce:24:d6:0c:a7:20:c5:d6:0b:35:5a:8c:c6:3f:ef:43:
        50:13:5b:e6:60:2f:16:d7:2d:96:39:59:ee:19:96:1b:c0:8c:
        2f:a4:27:f6:89:9d:a2:50:66:96:3e:7a:8f:7e:f7:5f:f0:d8:
        7b:ff:4d:bb:fb:d9:9f:41:22:ef:da:0e:0b:68:99:92:a4:3f:
        6f:aa:aa:c4:13:1f:f2:85:57:11:12:90:27:33:26:80:76:38:
        fc:6f:9e:03:e2:a9:44:73:99:f8:50:b7:71:6b:e1:55:11:cc:
        38:e0:3f:b6:f8:0f:21:ef:25:ae:72:2e:e1:d5:73:e1:9d:5e:
        43:8b:61:a9:94:f8:57:dd:b6:33:2a:b9:1e:a8:e8:71:29:b3:
        83:89:b4:03:ad:27:a0:b1:0d:0d:30:5d:75:32:fc:67:9e:1d:
        96:9c:9e:18:7b:d2:8f:96:d9:ba:8d:01:2f:ef:c0:b0:9b:aa:
        12:1d:25:51:89:c8:3b:c4:22:5a:ff:f2:c5:ee:3a:84:47:f4:
        87:4c:c2:5c:a4:5d:d5:02:f5:3a:14:58:c4:37:63:a5:2e:e8:
        0a:36:99:0b:fe:16:e6:b6:6d:50:d7:6d:33:4a:16:d3:d8:0c:
        57:7d:fc:12:93:b1:f0:24:cd:d1:ff:b4:c6:b7:ff:5f:b0:83:
        3d:d6:b8:fc:a6:16:14:ac
-----BEGIN CERTIFICATE-----
MIIGQjCCBCqgAwIBAgIBCDANBgkqhkiG9w0BAQ0FADBdMQswCQYDVQQGEwJERTEZ
MBcGA1UECgwQRGFtYXNjaGtlc3RyLiAxMTEWMBQGA1UECwwNQXJiZWl0c3ppbW1l
cjEbMBkGA1UEAwwSRGFtYTExIExhYiBSb290IENBMB4XDTI1MTAwNTA3MDA0MloX
DTMwMTEzMDIzNTk1OVowajELMAkGA1UEBhMCREUxGTAXBgNVBAoMEERhbWFzY2hr
ZXN0ci4gMTExFjAUBgNVBAsMDUFyYmVpdHN6aW1tZXIxKDAmBgNVBAMMH0RhbWEx
MSBMYWIgSW50ZXJtZWRpYXJ5IFRlc3QgQ0EwggIiMA0GCSqGSIb3DQEBAQUAA4IC
DwAwggIKAoICAQC1r96Y4pUg0NWxXziknw/eyHl3VTayyqxiGeir9p0BwTmW7JZ7
xztFgdJn1WX2dXCIRHdXrch0tUOfyps9rPceUhAuqPjMOVdSpa96GUn9AwwXTMDG
l5w7DDUyrxYH9Eri0kL/oo489QJ/hzp/UiO+DO6YK6u9veCtiGEd1kC/EBc772lF
FsRli4625zZ/dWxkJbG490K0PMtY8Bjsl6ObNeq9AxHYOoCtrbqVnDwOKhY7gRz7
dCFdFTBfPPhmMoXjszd8r0gRHxtzWZ69v69Bo9IowWf1tH5uNEXzTkn5wCO7IQbR
0+nJ+a9Zrn5FwJHRzuNf6K9RgMROa1I4bZTI9cG8pBzuQ2POYbzJN0fYvwEcODHB
UM2SDj6IfVu8D70mGA/8OWfyYetOx/ZSi6SLYL8ant1G0gLak19Hb8cu84SZhyse
FYYahDlvs9cLCBuFchZP4voLBS9y5f5kHJl8vC1S/9qtKafHdMAYD2XU5PRfggWJ
ua+yuFtN6FJYjTkVMZCrEgJURxcjOSx8Ep7x721pyx3pMYFwdPN8sAhqN09Bv9cr
b5s2DHmgOhdsLUccP5/NgHDBqoZWcC5dZKuhpAub6xHpHFql2zadXhPf41zQB/aO
IFgPJHcL1XN05d7dAvQUrI7GaeDuxBHUA6JNQDx9eIlJkzs0gk2nzAp8RwIDAQAB
o4H/MIH8MA4GA1UdDwEB/wQEAwIBBjAPBgNVHRMBAf8EBTADAQH/MB0GA1UdDgQW
BBTomiXWMUHCx0MQR9pk52lKw/NLJzAfBgNVHSMEGDAWgBQBsi1WPId/qF9hvFgB
vx79SsrKjTBRBggrBgEFBQcBAQRFMEMwQQYIKwYBBQUHMAKGNWh0dHBzOi8vZWxi
b3Nzby5naXRodWIuaW8veDUwOS8vRGFtYTExX1Jvb3RfQ0EtY2EuY3J0MEYGA1Ud
HwQ/MD0wO6A5oDeGNWh0dHBzOi8vZWxib3Nzby5naXRodWIuaW8veDUwOS8vRGFt
YTExX1Jvb3RfQ0EtY2EuY3JsMA0GCSqGSIb3DQEBDQUAA4ICAQDAKa5arhwT06tc
5stSj3Bj7Of/1mIPUDMSRqJaVgysS5nRs1XPQZxhvOF2cKwHJPUFIp6KnWMn2Tmf
VV/JblL6aM6xYPEa6Wt3Ic4hEHSX7FZe+IpFaRR/Tf1U1riWzCCTIcSLyxw0phYJ
T9r6GccxUff9ieCL+WFAfmp2v1808q4fariN+MBXoEGvr+Kk2CFX5YXHidtkw/5F
Ypliosc8b2OAj/ilF4WHZTousojlpOnAThSWvWH11LMdGpDi7L6fAXO9uoaj8MTP
DXyVI5/i2s8J5XsF6QDFZBURSr7qhDXh4EpwN5ctXi+76Z15FVcf2bW7akcGTXdP
naaGs84k1gynIMXWCzVajMY/70NQE1vmYC8W1y2WOVnuGZYbwIwvpCf2iZ2iUGaW
PnqPfvdf8Nh7/027+9mfQSLv2g4LaJmSpD9vqqrEEx/yhVcREpAnMyaAdjj8b54D
4qlEc5n4ULdxa+FVEcw44D+2+A8h7yWuci7h1XPhnV5Di2GplPhX3bYzKrkeqOhx
KbODibQDrSegsQ0NMF11Mvxnnh2WnJ4Ye9KPltm6jQEv78Cwm6oSHSVRicg7xCJa
//LF7jqER/SHTMJcpF3VAvU6FFjEN2OlLugKNpkL/hbmtm1Q120zShbT2AxXffwS
k7HwJM3R/7TGt/9fsIM91rj8phYUrA==
-----END CERTIFICATE-----
