Certificate:
    Data:
        Version: 3 (0x2)
        Serial Number: 2 (0x2)
        Signature Algorithm: sha512WithRSAEncryption
        Issuer: C=DE, O=Damaschkestr. 11, OU=Arbeitszimmer, CN=Test1 Lab Intermediary CA
        Validity
            Not Before: Dec  9 13:45:12 2022 GMT
            Not After : Dec  9 23:59:59 2025 GMT
        Subject: C=DE, O=Damaschkestr. 11, OU=Arbeitszimmer, CN=Test1 Lab Identity CA
        Subject Public Key Info:
            Public Key Algorithm: rsaEncryption
                RSA Public-Key: (4096 bit)
                Modulus:
                    00:bf:04:0f:74:04:a0:1f:84:f4:c2:9b:11:50:52:
                    18:8e:a8:2a:48:b1:aa:ba:8e:ef:4d:0f:24:a1:68:
                    36:b6:50:b7:39:91:a1:44:f0:e7:c0:55:4b:03:05:
                    a7:29:5a:77:09:15:3a:0d:09:f5:f9:6b:bf:d2:15:
                    e7:b8:aa:39:d6:2d:21:a9:02:d5:96:d1:d6:5b:1b:
                    08:1b:81:f9:21:5e:d9:f2:e6:19:b0:30:ec:57:06:
                    a5:d3:88:c3:a4:88:86:e9:8f:8a:7f:ac:22:be:33:
                    46:4b:ed:72:6c:02:77:6d:db:37:be:eb:4c:f9:0a:
                    07:99:71:08:39:9f:48:af:cb:06:87:88:c0:3c:d6:
                    e1:4f:be:28:ed:43:89:8b:01:ad:fa:9e:0b:76:f5:
                    84:5a:cf:ef:93:93:78:fa:54:79:01:fe:49:9e:b4:
                    fa:fe:e1:de:79:d9:68:72:da:0a:23:bb:f0:97:f5:
                    51:59:11:2a:7c:e3:05:12:95:ed:b4:88:d5:36:a5:
                    f6:6d:33:88:91:b7:57:18:ce:48:ac:77:64:69:a1:
                    5e:b3:7a:f6:ae:91:ea:d6:4c:47:23:dd:28:cc:9b:
                    5c:7a:1b:47:b3:12:a1:ee:6d:4a:f6:b4:1f:61:f2:
                    30:1c:b4:e2:36:20:bd:36:42:2f:03:86:35:5b:db:
                    fb:70:b6:71:01:06:a1:49:67:e5:07:d4:bb:9c:5a:
                    28:e1:a9:67:e7:25:ff:27:ce:5f:b7:f2:5c:48:1d:
                    a9:39:61:79:d1:42:d9:e9:0e:01:da:a9:9a:ec:ee:
                    46:f0:e0:65:ec:ce:cc:b1:9e:fc:99:e6:f5:fe:ef:
                    6b:52:d9:58:46:74:25:57:d1:3b:c2:9f:5c:2f:89:
                    77:fb:f7:c5:73:4a:a6:fa:a1:71:de:69:e6:7f:38:
                    88:35:25:dd:53:aa:5a:cd:3b:83:d8:aa:82:9f:3b:
                    9b:65:66:bb:74:0f:c0:06:43:23:62:c5:56:06:12:
                    3c:b8:d5:fe:5f:96:4f:5c:6c:0a:8b:e5:a2:8c:c4:
                    b3:e7:02:0c:6c:8b:9d:de:e4:ee:0e:df:8b:9c:0a:
                    1a:b0:6b:80:10:7a:9d:e0:aa:67:de:9a:ec:68:c6:
                    d1:7a:b6:e8:62:b0:cd:79:50:fb:f7:bc:cf:7e:40:
                    c9:77:89:1b:65:69:30:f5:23:82:3e:64:d1:3e:52:
                    74:02:aa:c8:14:d8:30:eb:e3:ed:54:4a:6d:81:9c:
                    05:9e:1e:9a:61:1c:b8:63:81:91:d9:3e:15:5a:24:
                    7a:83:a4:e2:b6:79:3d:07:85:b5:f1:51:29:f6:d8:
                    ef:c8:33:bd:78:ed:38:d7:a7:33:e3:d6:6e:11:b9:
                    38:bf:17
                Exponent: 65537 (0x10001)
        X509v3 extensions:
            X509v3 Key Usage: critical
                Certificate Sign, CRL Sign
            X509v3 Basic Constraints: critical
                CA:TRUE, pathlen:0
            X509v3 Subject Key Identifier: 
                8B:24:B0:3D:E9:B6:FE:E3:74:B7:7B:81:52:8A:34:98:96:E0:6C:BE
            X509v3 Authority Key Identifier: 
                keyid:D6:D5:FF:C0:0E:9D:F8:AB:21:12:74:34:FF:F8:6A:27:18:25:C0:91

            Authority Information Access: 
                CA Issuers - URI:https://elbosso.github.io/x509//Test1_Intermediary_CA-ca.crt

            X509v3 CRL Distribution Points: 

                Full Name:
                  URI:https://elbosso.github.io/x509//Test1_Intermediary_CA-ca.crl

    Signature Algorithm: sha512WithRSAEncryption
         89:d3:69:1e:fa:af:ec:15:d1:1b:ff:44:f8:53:94:f7:e5:3b:
         1e:ad:e7:18:8f:22:f2:33:84:08:ec:2b:d1:f1:a9:28:e8:7b:
         e3:6f:2a:8f:ac:9f:6d:2c:1a:28:67:fd:2a:42:c1:23:f3:a2:
         0a:d6:29:8d:25:d2:73:bf:eb:de:f6:3c:95:42:50:f0:83:8e:
         d0:8a:41:d9:ac:fa:6f:ca:b3:7d:d8:a3:1f:ea:fb:7f:e4:27:
         16:6c:d4:d9:e1:d9:37:d9:3b:3a:44:cd:0d:e4:59:cb:06:cd:
         1e:85:38:57:fb:f0:44:e4:74:86:92:c0:d0:c0:a2:4e:79:3a:
         d7:b4:ec:39:0a:6d:87:8a:d2:c9:2c:56:cd:7b:9a:b7:3b:53:
         be:56:38:9f:92:31:50:2d:2b:a7:ce:ce:0c:46:34:ff:ba:29:
         02:3e:16:4f:ab:8e:51:1d:21:f0:84:da:4c:1f:7b:c6:02:1a:
         f3:e1:c5:64:de:3b:2b:97:a0:af:bb:1b:30:69:ae:c8:54:a6:
         65:53:43:dc:ec:04:99:cd:f3:25:8d:26:c2:21:33:01:01:d7:
         ab:be:b0:03:7e:7d:34:1b:cf:bb:14:1a:5f:05:80:f2:d0:58:
         b9:16:a0:fb:73:62:2a:38:a5:8e:06:6e:88:30:e0:2b:96:01:
         a3:36:b2:e2:18:e1:95:c6:11:22:6a:9b:25:6e:df:63:06:44:
         71:7d:2e:1e:65:8c:2d:8f:15:c6:34:26:48:b0:4c:92:39:7d:
         40:fd:eb:d8:f7:9f:5c:37:42:53:29:37:b6:d7:4c:a7:e4:32:
         f9:4c:57:92:5d:2f:c4:a4:c4:4d:b8:69:47:38:90:50:00:56:
         be:2e:21:f6:a6:93:2c:70:00:c6:54:27:84:9b:df:1a:5b:50:
         56:e2:90:98:d9:5a:3a:db:a0:f1:89:17:be:41:39:52:75:e1:
         80:a0:08:1d:7c:a9:b7:08:bd:a6:e1:94:71:a9:6e:b4:6f:96:
         3e:53:9b:de:03:08:d9:59:ac:fa:04:1d:54:16:46:7c:31:18:
         3d:56:fa:25:d7:ee:d2:87:32:c1:e7:24:56:a5:86:5e:9f:f9:
         dc:dc:9f:a2:4a:5b:40:1b:37:e0:5a:c3:ff:82:b3:08:af:21:
         f5:da:cc:68:68:9d:2f:87:2d:43:8b:8d:73:ec:87:be:39:ae:
         d9:d9:6a:7d:7c:89:7b:bd:b3:ab:5c:b4:ed:8c:47:6f:7e:cf:
         6f:e5:a7:e8:fc:94:dd:fb:2c:53:89:08:c6:7a:6d:a0:ba:78:
         0c:85:b5:a4:f7:29:b6:ff:1b:35:32:c7:f0:dd:f3:6d:86:a2:
         54:a6:e7:cb:93:44:8d:0a
-----BEGIN CERTIFICATE-----
MIIGUjCCBDqgAwIBAgIBAjANBgkqhkiG9w0BAQ0FADBkMQswCQYDVQQGEwJERTEZ
MBcGA1UECgwQRGFtYXNjaGtlc3RyLiAxMTEWMBQGA1UECwwNQXJiZWl0c3ppbW1l
cjEiMCAGA1UEAwwZVGVzdDEgTGFiIEludGVybWVkaWFyeSBDQTAeFw0yMjEyMDkx
MzQ1MTJaFw0yNTEyMDkyMzU5NTlaMGAxCzAJBgNVBAYTAkRFMRkwFwYDVQQKDBBE
YW1hc2Noa2VzdHIuIDExMRYwFAYDVQQLDA1BcmJlaXRzemltbWVyMR4wHAYDVQQD
DBVUZXN0MSBMYWIgSWRlbnRpdHkgQ0EwggIiMA0GCSqGSIb3DQEBAQUAA4ICDwAw
ggIKAoICAQC/BA90BKAfhPTCmxFQUhiOqCpIsaq6ju9NDyShaDa2ULc5kaFE8OfA
VUsDBacpWncJFToNCfX5a7/SFee4qjnWLSGpAtWW0dZbGwgbgfkhXtny5hmwMOxX
BqXTiMOkiIbpj4p/rCK+M0ZL7XJsAndt2ze+60z5CgeZcQg5n0ivywaHiMA81uFP
vijtQ4mLAa36ngt29YRaz++Tk3j6VHkB/kmetPr+4d552Why2goju/CX9VFZESp8
4wUSle20iNU2pfZtM4iRt1cYzkisd2RpoV6zevaukerWTEcj3SjMm1x6G0ezEqHu
bUr2tB9h8jActOI2IL02Qi8DhjVb2/twtnEBBqFJZ+UH1LucWijhqWfnJf8nzl+3
8lxIHak5YXnRQtnpDgHaqZrs7kbw4GXszsyxnvyZ5vX+72tS2VhGdCVX0TvCn1wv
iXf798VzSqb6oXHeaeZ/OIg1Jd1TqlrNO4PYqoKfO5tlZrt0D8AGQyNixVYGEjy4
1f5flk9cbAqL5aKMxLPnAgxsi53e5O4O34ucChqwa4AQep3gqmfemuxoxtF6tuhi
sM15UPv3vM9+QMl3iRtlaTD1I4I+ZNE+UnQCqsgU2DDr4+1USm2BnAWeHpphHLhj
gZHZPhVaJHqDpOK2eT0HhbXxUSn22O/IM7147TjXpzPj1m4RuTi/FwIDAQABo4IB
ETCCAQ0wDgYDVR0PAQH/BAQDAgEGMBIGA1UdEwEB/wQIMAYBAf8CAQAwHQYDVR0O
BBYEFIsksD3ptv7jdLd7gVKKNJiW4Gy+MB8GA1UdIwQYMBaAFNbV/8AOnfirIRJ0
NP/4aicYJcCRMFgGCCsGAQUFBwEBBEwwSjBIBggrBgEFBQcwAoY8aHR0cHM6Ly9l
bGJvc3NvLmdpdGh1Yi5pby94NTA5Ly9UZXN0MV9JbnRlcm1lZGlhcnlfQ0EtY2Eu
Y3J0ME0GA1UdHwRGMEQwQqBAoD6GPGh0dHBzOi8vZWxib3Nzby5naXRodWIuaW8v
eDUwOS8vVGVzdDFfSW50ZXJtZWRpYXJ5X0NBLWNhLmNybDANBgkqhkiG9w0BAQ0F
AAOCAgEAidNpHvqv7BXRG/9E+FOU9+U7Hq3nGI8i8jOECOwr0fGpKOh7428qj6yf
bSwaKGf9KkLBI/OiCtYpjSXSc7/r3vY8lUJQ8IOO0IpB2az6b8qzfdijH+r7f+Qn
FmzU2eHZN9k7OkTNDeRZywbNHoU4V/vwROR0hpLA0MCiTnk617TsOQpth4rSySxW
zXuatztTvlY4n5IxUC0rp87ODEY0/7opAj4WT6uOUR0h8ITaTB97xgIa8+HFZN47
K5egr7sbMGmuyFSmZVND3OwEmc3zJY0mwiEzAQHXq76wA359NBvPuxQaXwWA8tBY
uRag+3NiKjiljgZuiDDgK5YBozay4hjhlcYRImqbJW7fYwZEcX0uHmWMLY8VxjQm
SLBMkjl9QP3r2PefXDdCUyk3ttdMp+Qy+UxXkl0vxKTETbhpRziQUABWvi4h9qaT
LHAAxlQnhJvfGltQVuKQmNlaOtug8YkXvkE5UnXhgKAIHXyptwi9puGUcalutG+W
PlOb3gMI2Vms+gQdVBZGfDEYPVb6Jdfu0ocyweckVqWGXp/53NyfokpbQBs34FrD
/4KzCK8h9drMaGidL4ctQ4uNc+yHvjmu2dlqfXyJe72zq1y07YxHb37Pb+Wn6PyU
3fssU4kIxnptoLp4DIW1pPcptv8bNTLH8N3zbYaiVKbny5NEjQo=
-----END CERTIFICATE-----
