Certificate:
    Data:
        Version: 3 (0x2)
        Serial Number: 7 (0x7)
        Signature Algorithm: sha512WithRSAEncryption
        Issuer: C=DE, O=Damaschkestr. 11, OU=Arbeitszimmer, CN=Dama11 Lab Intermediary Test CA
        Validity
            Not Before: Dec  9 13:35:51 2022 GMT
            Not After : Dec  9 23:59:59 2025 GMT
        Subject: C=DE, O=Damaschkestr. 11, OU=Arbeitszimmer, CN=Test1 Lab Intermediary CA
        Subject Public Key Info:
            Public Key Algorithm: rsaEncryption
                RSA Public-Key: (4096 bit)
                Modulus:
                    00:aa:7e:45:7d:f4:c5:8f:3a:39:32:af:76:9c:26:
                    0b:5e:36:89:c6:1c:a5:24:51:3a:d3:b4:33:11:cc:
                    90:ed:72:c4:93:68:ec:6a:3b:93:88:ec:ae:74:dc:
                    63:05:87:4f:22:5c:d0:7d:b2:5d:43:ce:79:ca:89:
                    d0:3f:59:5c:86:be:7d:55:5b:d3:ea:94:0a:b5:bd:
                    5b:06:b3:ca:cf:4e:91:e1:43:df:05:ed:fc:e3:6e:
                    70:d5:cc:eb:45:ad:f6:c5:57:8c:73:1c:38:67:01:
                    a9:95:58:b5:00:8f:4f:db:61:c6:f6:20:cf:03:23:
                    a6:c4:41:ed:c6:33:32:94:09:a1:45:1e:2f:09:c9:
                    78:fa:1d:29:72:66:da:e0:29:83:25:c5:04:08:7e:
                    a6:c8:eb:27:29:65:33:e3:a6:00:a4:9a:e5:40:1f:
                    16:7e:20:57:2e:8d:bb:e0:7b:8a:22:44:c8:ba:de:
                    e8:80:26:c1:4b:91:b6:f3:1d:a3:49:4b:f0:2d:bd:
                    07:f7:6a:c2:c2:bd:b3:6f:70:8c:8a:22:77:2d:77:
                    1c:04:d3:5f:b9:a5:7c:8a:70:39:cf:12:85:32:31:
                    67:eb:20:3a:b6:ba:f9:d2:68:57:1e:cc:fb:05:32:
                    e2:a5:96:e5:ee:2c:90:a7:ae:5e:b1:d5:c2:4c:15:
                    61:24:3e:5e:b9:31:47:3e:8a:d6:75:f0:c0:52:10:
                    08:f2:c6:97:07:72:4d:e2:9f:27:72:da:be:f1:a4:
                    e7:3f:ab:be:38:17:c9:82:25:5c:a0:a0:6a:cc:65:
                    03:93:c9:7b:cf:37:0d:79:05:0f:f7:c2:59:49:df:
                    42:02:13:26:c1:43:5e:1b:b5:75:83:9e:54:19:21:
                    fc:5c:3c:34:aa:c3:88:12:f2:40:63:7f:01:c5:46:
                    f4:ee:02:51:a2:de:f2:80:61:57:53:07:a7:06:82:
                    1e:84:94:ad:0d:0f:ea:e0:11:34:4b:3e:f4:71:59:
                    28:fd:92:4a:7a:a8:99:58:77:ec:a9:4f:1e:56:4c:
                    41:db:07:39:3f:48:56:cf:d1:7a:b1:e4:73:c3:2e:
                    8e:81:5f:3b:61:d1:2a:a2:24:18:68:6f:df:53:79:
                    b9:2c:3f:1d:05:2e:b4:26:07:20:df:c4:28:30:12:
                    07:39:0a:f6:54:d2:38:1a:cf:c4:c1:e6:30:b2:80:
                    e4:96:c5:1a:74:84:4b:af:2f:2f:81:09:ee:31:fe:
                    22:f7:20:9a:2c:92:77:67:61:a5:9f:42:12:31:c5:
                    84:4e:31:b1:12:e2:52:05:17:b3:a1:7e:91:2e:76:
                    28:07:67:a5:1d:97:fa:33:c3:45:c7:9e:ff:95:1b:
                    f0:e5:23
                Exponent: 65537 (0x10001)
        X509v3 extensions:
            X509v3 Key Usage: critical
                Certificate Sign, CRL Sign
            X509v3 Basic Constraints: critical
                CA:TRUE, pathlen:1
            X509v3 Subject Key Identifier: 
                D6:D5:FF:C0:0E:9D:F8:AB:21:12:74:34:FF:F8:6A:27:18:25:C0:91
            X509v3 Authority Key Identifier: 
                keyid:E8:9A:25:D6:31:41:C2:C7:43:10:47:DA:64:E7:69:4A:C3:F3:4B:27

            Authority Information Access: 
                CA Issuers - URI:https://elbosso.github.io/x509//Dama11_Intermediary_Test_CA-ca.crt

            X509v3 CRL Distribution Points: 

                Full Name:
                  URI:https://elbosso.github.io/x509//Dama11_Intermediary_Test_CA-ca.crl

    Signature Algorithm: sha512WithRSAEncryption
         6d:d3:8e:ec:66:09:56:9c:ae:96:d7:c2:61:8e:b2:b0:08:ac:
         e0:d3:de:b7:94:cc:3c:f5:90:42:2f:fa:99:34:7d:87:95:e7:
         23:81:f3:57:4f:d4:b3:6f:cd:33:ab:d2:9c:08:18:cb:c9:e5:
         12:6e:ba:d4:93:c5:84:b5:e5:a9:83:67:07:ee:b5:74:b5:12:
         cc:2a:4f:04:9c:ad:7f:c8:da:39:6e:91:21:b3:a6:56:bb:ec:
         51:c2:77:46:7f:ba:eb:ac:c2:da:1c:84:54:1a:28:59:c8:b4:
         58:18:a8:8f:86:de:a6:e5:f6:e1:36:46:72:d3:dc:74:69:34:
         c4:d3:25:c4:a2:e3:c5:ed:cf:cb:d9:db:2f:02:ca:88:37:79:
         e4:99:db:fb:ec:ad:7d:8d:d2:e5:76:9b:3c:78:2d:34:5f:dd:
         84:1a:7f:3e:a3:1c:55:58:31:fe:fb:8d:a7:d3:ba:cd:b3:15:
         22:e7:da:f7:7b:de:82:97:a9:ae:75:aa:f5:63:13:b1:fe:02:
         58:19:12:fe:7a:62:ea:f6:6a:cd:ef:d2:26:4b:b5:99:00:de:
         3e:fc:54:63:09:3e:be:c5:d7:cf:d9:40:c0:46:e6:25:f3:e0:
         63:f0:ef:98:4e:7f:24:a3:2f:30:78:fd:68:52:79:c9:76:3c:
         88:75:2b:66:12:f9:38:ba:8b:fd:6f:2e:1c:9d:ca:2f:5d:d8:
         fd:e2:ab:ec:1b:c9:c2:68:11:dd:e7:fd:c9:29:70:bd:3d:d7:
         90:8d:46:c7:64:bb:53:74:7f:46:ec:7c:60:78:ff:69:f9:1e:
         e9:3a:cb:a1:1c:c8:a3:52:b2:a0:d5:09:39:dc:05:24:a2:e9:
         13:1c:4a:72:2a:7d:1f:c1:1f:f2:90:45:cd:eb:56:f1:91:b4:
         09:47:a8:04:a2:23:4b:3c:63:65:99:22:d2:30:ec:59:85:4e:
         e4:2e:ce:2a:95:30:d2:c2:cc:3f:d6:4b:56:9e:bf:24:43:8d:
         cb:9e:82:cd:83:6f:0e:7a:ac:27:71:07:50:6c:aa:ca:97:1c:
         49:98:ba:c7:c9:88:f5:06:f8:8d:fb:9c:d7:32:39:16:12:08:
         3f:88:1a:f1:d4:cc:90:83:83:d8:7e:d2:bb:f1:06:c5:8c:89:
         c1:33:51:d0:29:f9:30:f1:ad:c5:cc:c9:14:3f:42:a2:b6:49:
         6a:ee:fe:0d:e0:2f:fd:79:23:98:af:37:dd:49:d7:34:72:8b:
         5c:65:51:5e:4e:aa:6d:26:d7:0b:fb:cb:12:97:2b:c8:44:6b:
         be:ca:ba:fd:95:bb:cd:07:cc:4c:f1:82:d2:1e:43:ad:55:70:
         f1:5d:20:ec:c3:fb:9c:89
-----BEGIN CERTIFICATE-----
MIIGaDCCBFCgAwIBAgIBBzANBgkqhkiG9w0BAQ0FADBqMQswCQYDVQQGEwJERTEZ
MBcGA1UECgwQRGFtYXNjaGtlc3RyLiAxMTEWMBQGA1UECwwNQXJiZWl0c3ppbW1l
cjEoMCYGA1UEAwwfRGFtYTExIExhYiBJbnRlcm1lZGlhcnkgVGVzdCBDQTAeFw0y
MjEyMDkxMzM1NTFaFw0yNTEyMDkyMzU5NTlaMGQxCzAJBgNVBAYTAkRFMRkwFwYD
VQQKDBBEYW1hc2Noa2VzdHIuIDExMRYwFAYDVQQLDA1BcmJlaXRzemltbWVyMSIw
IAYDVQQDDBlUZXN0MSBMYWIgSW50ZXJtZWRpYXJ5IENBMIICIjANBgkqhkiG9w0B
AQEFAAOCAg8AMIICCgKCAgEAqn5FffTFjzo5Mq92nCYLXjaJxhylJFE607QzEcyQ
7XLEk2jsajuTiOyudNxjBYdPIlzQfbJdQ855yonQP1lchr59VVvT6pQKtb1bBrPK
z06R4UPfBe38425w1czrRa32xVeMcxw4ZwGplVi1AI9P22HG9iDPAyOmxEHtxjMy
lAmhRR4vCcl4+h0pcmba4CmDJcUECH6myOsnKWUz46YApJrlQB8WfiBXLo274HuK
IkTIut7ogCbBS5G28x2jSUvwLb0H92rCwr2zb3CMiiJ3LXccBNNfuaV8inA5zxKF
MjFn6yA6trr50mhXHsz7BTLipZbl7iyQp65esdXCTBVhJD5euTFHPorWdfDAUhAI
8saXB3JN4p8nctq+8aTnP6u+OBfJgiVcoKBqzGUDk8l7zzcNeQUP98JZSd9CAhMm
wUNeG7V1g55UGSH8XDw0qsOIEvJAY38BxUb07gJRot7ygGFXUwenBoIehJStDQ/q
4BE0Sz70cVko/ZJKeqiZWHfsqU8eVkxB2wc5P0hWz9F6seRzwy6OgV87YdEqoiQY
aG/fU3m5LD8dBS60Jgcg38QoMBIHOQr2VNI4Gs/EweYwsoDklsUadIRLry8vgQnu
Mf4i9yCaLJJ3Z2Gln0ISMcWETjGxEuJSBRezoX6RLnYoB2elHZf6M8NFx57/lRvw
5SMCAwEAAaOCAR0wggEZMA4GA1UdDwEB/wQEAwIBBjASBgNVHRMBAf8ECDAGAQH/
AgEBMB0GA1UdDgQWBBTW1f/ADp34qyESdDT/+GonGCXAkTAfBgNVHSMEGDAWgBTo
miXWMUHCx0MQR9pk52lKw/NLJzBeBggrBgEFBQcBAQRSMFAwTgYIKwYBBQUHMAKG
Qmh0dHBzOi8vZWxib3Nzby5naXRodWIuaW8veDUwOS8vRGFtYTExX0ludGVybWVk
aWFyeV9UZXN0X0NBLWNhLmNydDBTBgNVHR8ETDBKMEigRqBEhkJodHRwczovL2Vs
Ym9zc28uZ2l0aHViLmlvL3g1MDkvL0RhbWExMV9JbnRlcm1lZGlhcnlfVGVzdF9D
QS1jYS5jcmwwDQYJKoZIhvcNAQENBQADggIBAG3TjuxmCVacrpbXwmGOsrAIrODT
3reUzDz1kEIv+pk0fYeV5yOB81dP1LNvzTOr0pwIGMvJ5RJuutSTxYS15amDZwfu
tXS1EswqTwScrX/I2jlukSGzpla77FHCd0Z/uuuswtochFQaKFnItFgYqI+G3qbl
9uE2RnLT3HRpNMTTJcSi48Xtz8vZ2y8Cyog3eeSZ2/vsrX2N0uV2mzx4LTRf3YQa
fz6jHFVYMf77jafTus2zFSLn2vd73oKXqa51qvVjE7H+AlgZEv56Yur2as3v0iZL
tZkA3j78VGMJPr7F18/ZQMBG5iXz4GPw75hOfySjLzB4/WhSecl2PIh1K2YS+Ti6
i/1vLhydyi9d2P3iq+wbycJoEd3n/ckpcL0915CNRsdku1N0f0bsfGB4/2n5Huk6
y6EcyKNSsqDVCTncBSSi6RMcSnIqfR/BH/KQRc3rVvGRtAlHqASiI0s8Y2WZItIw
7FmFTuQuziqVMNLCzD/WS1aevyRDjcuegs2Dbw56rCdxB1BsqsqXHEmYusfJiPUG
+I37nNcyORYSCD+IGvHUzJCDg9h+0rvxBsWMicEzUdAp+TDxrcXMyRQ/QqK2SWru
/g3gL/15I5ivN91J1zRyi1xlUV5Oqm0m1wv7yxKXK8hEa77Kuv2Vu80HzEzxgtIe
Q61VcPFdIOzD+5yJ
-----END CERTIFICATE-----
