Certificate:
    Data:
        Version: 3 (0x2)
        Serial Number: 1 (0x1)
        Signature Algorithm: sha512WithRSAEncryption
        Issuer: C=DE, O=Damaschkestr. 11, OU=Arbeitszimmer, CN=Test1 Lab Root CA
        Validity
            Not Before: Apr 11 07:36:43 2021 GMT
            Not After : Apr 11 23:59:59 2024 GMT
        Subject: C=DE, O=Damaschkestr. 11, OU=Arbeitszimmer, CN=Test1 Lab Root CA
        Subject Public Key Info:
            Public Key Algorithm: rsaEncryption
                RSA Public-Key: (4096 bit)
                Modulus:
                    00:c1:7b:c9:95:b8:9a:c9:ee:bf:68:35:91:fa:fa:
                    0d:20:3b:fd:0c:c2:e3:76:59:4b:79:a8:ef:01:a2:
                    51:8e:2c:f3:48:2d:4b:7c:56:61:b3:15:3e:4f:68:
                    06:94:77:18:0d:c4:67:7d:7f:9f:54:50:a9:df:d3:
                    3b:fb:9a:f8:f8:28:aa:04:0d:e1:a8:22:8a:ea:10:
                    1b:85:97:b6:2f:a3:21:f8:38:18:2f:d2:81:ef:9d:
                    80:bd:68:3d:6e:89:6e:b6:bc:02:d6:37:fe:bd:44:
                    bd:11:00:b2:c7:6c:76:9e:b0:ae:33:5d:01:f6:ad:
                    63:8c:d8:b2:5c:a9:5e:81:6b:9a:d4:4c:91:f7:ed:
                    b9:b5:2e:b1:1a:f2:01:6a:3e:4e:f0:9a:e5:0f:f4:
                    76:25:c0:00:a7:d1:e2:13:e5:c8:a2:23:a5:59:01:
                    a2:58:7c:3d:7f:38:da:fa:4a:fc:8e:0e:14:5b:2c:
                    bd:c4:0a:34:60:79:e7:58:28:d2:a2:e4:14:bc:03:
                    9f:89:ba:89:33:17:a5:74:21:45:6d:84:9e:20:44:
                    2e:a8:58:40:e5:56:e8:53:0a:60:13:21:76:ca:2c:
                    16:21:e7:d8:4f:66:08:5b:bc:f0:74:de:66:d9:d1:
                    49:95:99:01:8e:76:5d:cb:4e:e0:de:78:31:ad:59:
                    86:c1:26:ce:13:53:d1:3b:32:99:2b:82:32:7c:78:
                    df:1c:3e:2d:68:73:e2:e4:5b:d5:34:ce:26:60:a4:
                    2f:7e:4b:70:b2:1e:23:cc:80:61:e8:41:fc:52:c9:
                    4b:66:d2:e0:f2:f0:b5:65:0a:3a:11:70:e5:cb:33:
                    33:e1:3f:78:3f:69:76:aa:cf:b9:42:de:0e:96:21:
                    85:93:f8:cf:4a:bd:7e:fc:92:5c:e0:ad:ee:68:29:
                    3e:7b:9e:54:34:2f:b2:d5:02:02:13:61:a3:62:a9:
                    ac:18:9f:07:81:3d:98:2c:26:a2:7c:31:62:1f:d3:
                    ad:fa:6c:17:70:82:11:4f:d7:b7:48:cb:44:3a:01:
                    df:50:dd:07:bc:09:b7:6e:ef:1a:49:f1:dc:22:a9:
                    69:de:b5:fe:82:d4:12:43:85:48:cf:70:e0:18:27:
                    4d:fa:14:01:cc:28:0c:de:bf:20:48:bf:12:7f:db:
                    f4:2f:fa:a5:f7:cd:1b:eb:3e:fe:86:5c:b1:85:36:
                    ce:f9:23:16:ee:1a:2f:e7:0d:89:e9:ec:f0:9c:47:
                    24:0f:a6:d1:cc:15:b6:57:fb:9b:1b:ba:24:cf:65:
                    02:9a:4d:01:62:e9:65:da:ac:57:81:8c:eb:ba:7b:
                    0c:38:b7:d8:74:68:da:24:0d:8a:ae:d0:b0:5a:74:
                    76:ae:0f
                Exponent: 65537 (0x10001)
        X509v3 extensions:
            X509v3 Key Usage: critical
                Certificate Sign, CRL Sign
            X509v3 Basic Constraints: critical
                CA:TRUE
            X509v3 Subject Key Identifier: 
                72:25:70:95:87:26:39:28:AD:8A:BB:34:93:33:6A:51:3E:7D:18:52
            X509v3 Authority Key Identifier: 
                keyid:72:25:70:95:87:26:39:28:AD:8A:BB:34:93:33:6A:51:3E:7D:18:52

    Signature Algorithm: sha512WithRSAEncryption
         a8:18:38:d6:a8:95:2a:3f:10:c3:74:30:13:19:8e:6d:59:f7:
         85:f3:a4:2a:f3:a2:62:3d:40:e8:14:aa:e1:de:2f:25:a2:b5:
         4e:70:2e:38:b9:6d:b2:12:f9:42:1d:d4:24:7a:80:a7:38:ac:
         4f:65:c3:78:4a:49:95:f0:82:19:c6:a8:34:d0:a1:5d:9e:e2:
         b8:af:2d:73:c1:5e:1b:56:26:c7:f6:32:7e:ba:fd:f0:aa:af:
         2d:f9:3d:4d:ec:42:3a:9a:d7:a8:8d:1e:9f:5f:18:40:f2:a8:
         e5:67:da:84:29:4d:d9:49:76:0a:61:74:79:03:eb:bd:2b:86:
         30:1e:9a:c2:a1:45:c9:40:a4:25:d3:5b:5f:9e:3a:44:b0:49:
         b4:72:9c:5e:3e:86:ab:7a:05:93:78:ac:9e:00:ed:bb:0a:c9:
         59:18:06:fe:e2:dd:62:42:ac:51:81:46:2e:5d:c5:15:6b:8d:
         3b:f4:88:2e:3c:07:52:d4:3c:bf:35:84:2d:b1:b6:4b:76:d6:
         ef:33:64:a3:a6:ff:f6:12:b7:d4:59:b3:47:75:c7:d2:af:fa:
         db:9b:16:cf:f9:8a:5c:1a:84:99:74:f9:74:2a:d1:53:c5:55:
         c4:f7:20:99:f1:4c:a5:a6:03:7f:d2:d8:68:1b:ab:78:92:dc:
         da:0c:57:2b:78:88:ec:42:73:a3:d1:15:84:b5:28:3e:2c:4b:
         3e:aa:a5:72:98:26:ed:b1:46:2d:49:0d:29:2c:78:7c:1a:2c:
         27:93:82:76:42:d5:7d:89:a1:2a:65:9e:14:56:21:52:8c:1f:
         88:a4:1e:b4:f8:91:ac:c6:ce:a0:a5:33:d7:25:2c:ca:8b:c0:
         98:06:af:27:fd:e5:8d:5e:a0:6d:01:db:fb:85:de:3e:eb:a9:
         f6:be:2e:5c:ba:c6:46:65:71:91:06:69:6e:ac:69:a8:99:3e:
         6f:08:53:a4:67:9d:33:8d:8d:a4:12:94:ee:4c:02:94:bc:ae:
         32:f3:e5:aa:a5:c1:60:1b:f5:1c:c6:0e:6f:2c:0e:93:51:ae:
         bf:16:f7:97:ac:18:fb:74:6d:a5:2d:b2:3b:e1:ba:a1:0f:65:
         6d:4b:f4:fb:4b:67:97:dd:90:9e:d2:84:5f:92:01:6f:6f:0d:
         9b:46:5a:e0:b7:80:85:19:1b:54:62:bc:7f:3b:a7:04:6e:06:
         dd:ac:4d:f4:e0:1a:40:52:15:2c:b1:50:d0:b1:fb:d7:14:3e:
         67:48:ef:4f:b0:4e:aa:f8:83:9b:b9:a0:35:e0:1a:9f:e4:f7:
         6a:8e:ee:36:2e:ef:98:d5:11:15:74:a9:91:27:16:33:8a:13:
         fa:76:cc:d6:9a:e0:ca:04
-----BEGIN CERTIFICATE-----
MIIFljCCA36gAwIBAgIBATANBgkqhkiG9w0BAQ0FADBcMQswCQYDVQQGEwJERTEZ
MBcGA1UECgwQRGFtYXNjaGtlc3RyLiAxMTEWMBQGA1UECwwNQXJiZWl0c3ppbW1l
cjEaMBgGA1UEAwwRVGVzdDEgTGFiIFJvb3QgQ0EwHhcNMjEwNDExMDczNjQzWhcN
MjQwNDExMjM1OTU5WjBcMQswCQYDVQQGEwJERTEZMBcGA1UECgwQRGFtYXNjaGtl
c3RyLiAxMTEWMBQGA1UECwwNQXJiZWl0c3ppbW1lcjEaMBgGA1UEAwwRVGVzdDEg
TGFiIFJvb3QgQ0EwggIiMA0GCSqGSIb3DQEBAQUAA4ICDwAwggIKAoICAQDBe8mV
uJrJ7r9oNZH6+g0gO/0MwuN2WUt5qO8BolGOLPNILUt8VmGzFT5PaAaUdxgNxGd9
f59UUKnf0zv7mvj4KKoEDeGoIorqEBuFl7YvoyH4OBgv0oHvnYC9aD1uiW62vALW
N/69RL0RALLHbHaesK4zXQH2rWOM2LJcqV6Ba5rUTJH37bm1LrEa8gFqPk7wmuUP
9HYlwACn0eIT5ciiI6VZAaJYfD1/ONr6SvyODhRbLL3ECjRgeedYKNKi5BS8A5+J
uokzF6V0IUVthJ4gRC6oWEDlVuhTCmATIXbKLBYh59hPZghbvPB03mbZ0UmVmQGO
dl3LTuDeeDGtWYbBJs4TU9E7MpkrgjJ8eN8cPi1oc+LkW9U0ziZgpC9+S3CyHiPM
gGHoQfxSyUtm0uDy8LVlCjoRcOXLMzPhP3g/aXaqz7lC3g6WIYWT+M9KvX78klzg
re5oKT57nlQ0L7LVAgITYaNiqawYnweBPZgsJqJ8MWIf0636bBdwghFP17dIy0Q6
Ad9Q3Qe8Cbdu7xpJ8dwiqWnetf6C1BJDhUjPcOAYJ036FAHMKAzevyBIvxJ/2/Qv
+qX3zRvrPv6GXLGFNs75IxbuGi/nDYnp7PCcRyQPptHMFbZX+5sbuiTPZQKaTQFi
6WXarFeBjOu6eww4t9h0aNokDYqu0LBadHauDwIDAQABo2MwYTAOBgNVHQ8BAf8E
BAMCAQYwDwYDVR0TAQH/BAUwAwEB/zAdBgNVHQ4EFgQUciVwlYcmOSitirs0kzNq
UT59GFIwHwYDVR0jBBgwFoAUciVwlYcmOSitirs0kzNqUT59GFIwDQYJKoZIhvcN
AQENBQADggIBAKgYONaolSo/EMN0MBMZjm1Z94XzpCrzomI9QOgUquHeLyWitU5w
Lji5bbIS+UId1CR6gKc4rE9lw3hKSZXwghnGqDTQoV2e4rivLXPBXhtWJsf2Mn66
/fCqry35PU3sQjqa16iNHp9fGEDyqOVn2oQpTdlJdgphdHkD670rhjAemsKhRclA
pCXTW1+eOkSwSbRynF4+hqt6BZN4rJ4A7bsKyVkYBv7i3WJCrFGBRi5dxRVrjTv0
iC48B1LUPL81hC2xtkt21u8zZKOm//YSt9RZs0d1x9Kv+tubFs/5ilwahJl0+XQq
0VPFVcT3IJnxTKWmA3/S2Ggbq3iS3NoMVyt4iOxCc6PRFYS1KD4sSz6qpXKYJu2x
Ri1JDSkseHwaLCeTgnZC1X2JoSplnhRWIVKMH4ikHrT4kazGzqClM9clLMqLwJgG
ryf95Y1eoG0B2/uF3j7rqfa+Lly6xkZlcZEGaW6saaiZPm8IU6RnnTONjaQSlO5M
ApS8rjLz5aqlwWAb9RzGDm8sDpNRrr8W95esGPt0baUtsjvhuqEPZW1L9PtLZ5fd
kJ7ShF+SAW9vDZtGWuC3gIUZG1RivH87pwRuBt2sTfTgGkBSFSyxUNCx+9cUPmdI
70+wTqr4g5u5oDXgGp/k92qO7jYu75jVERV0qZEnFjOKE/p2zNaa4MoE
-----END CERTIFICATE-----
