Certificate:
    Data:
        Version: 3 (0x2)
        Serial Number: 2 (0x2)
        Signature Algorithm: sha512WithRSAEncryption
        Issuer: C=DE, O=Damaschkestr. 11, OU=Arbeitszimmer, CN=Test1 Lab Root CA
        Validity
            Not Before: Apr 11 07:43:48 2021 GMT
            Not After : Apr 11 23:59:59 2024 GMT
        Subject: C=DE, O=Damaschkestr. 11, OU=Arbeitszimmer, CN=Test1 Lab Intermediary CA
        Subject Public Key Info:
            Public Key Algorithm: rsaEncryption
                RSA Public-Key: (4096 bit)
                Modulus:
                    00:b5:1c:3f:d4:8f:52:8f:66:af:ae:0b:7c:42:48:
                    b2:2e:db:54:fc:1c:1e:2c:8c:99:1f:7b:57:87:e2:
                    99:a8:ee:08:99:a6:d7:8a:8c:80:db:58:3d:88:d7:
                    99:eb:84:06:e1:c4:31:0a:be:92:ae:6c:b3:20:d7:
                    bc:66:71:14:32:b9:0b:b5:1c:08:76:75:1f:7a:34:
                    b5:58:42:57:4a:5d:2a:b7:37:a0:a9:44:87:3a:b0:
                    20:89:8c:2e:7a:74:53:59:59:8a:11:d0:7e:60:51:
                    db:84:ed:58:dc:04:da:68:8c:fa:c6:92:43:7f:9f:
                    69:49:43:19:10:b3:47:c7:83:e5:4d:88:89:f0:cc:
                    3f:6c:a1:81:a7:7d:94:5e:ef:07:5f:4a:64:6f:d3:
                    6e:05:91:7e:3e:f8:e9:e0:a2:26:9c:64:9b:fc:42:
                    1f:71:42:1c:07:d2:00:17:82:a5:3f:ac:e2:99:8b:
                    5a:8c:d5:08:c0:35:97:3e:e0:2b:de:18:9b:39:50:
                    f0:76:cb:73:c0:4c:8b:89:2d:e4:e3:e1:9a:61:3b:
                    c8:9d:d9:ca:b7:c2:a4:c3:d1:e1:3c:60:19:14:b5:
                    b1:3f:17:e5:ab:11:0d:2c:63:d0:5f:6f:68:08:8a:
                    e7:85:b6:d1:f3:21:86:aa:a7:2b:80:69:75:7d:4a:
                    4b:dd:d7:56:42:0d:ee:d3:91:b1:92:5a:7c:9d:db:
                    96:d8:7a:26:c3:e3:b9:bc:88:93:9c:1c:a6:d6:61:
                    1a:1e:51:6e:1e:6d:84:e9:23:be:6a:41:68:c0:9c:
                    b5:9a:3c:15:43:79:30:48:3c:bb:a5:6e:7c:04:fb:
                    1c:fb:f1:89:e6:58:74:04:4f:04:96:59:34:fc:3d:
                    9e:58:6e:b3:c4:5f:fb:d9:4e:73:e5:60:5f:ad:51:
                    2e:eb:d9:df:82:a2:7c:30:dd:1e:a5:a8:41:d1:b6:
                    6e:f3:fe:56:a6:40:db:8c:88:3b:5a:7a:c9:f3:aa:
                    9a:49:56:32:5e:0c:88:ff:76:73:2b:9f:10:56:dc:
                    20:4d:b8:e4:b0:db:a2:5b:15:40:a9:9d:54:a1:62:
                    f0:e6:f6:f9:5b:72:f0:cd:8e:fc:ac:15:23:8d:bb:
                    34:bb:eb:85:d5:63:68:70:dc:78:ee:95:1b:1e:47:
                    ec:25:e6:da:38:e9:bf:ce:85:94:fb:a7:f4:f8:bc:
                    d7:09:6d:b1:23:fc:96:4a:c7:e5:1f:05:c3:3b:22:
                    ee:8b:ba:13:51:51:3c:36:ff:46:d6:ae:92:98:80:
                    d3:87:e9:86:b5:04:4c:7a:ad:8f:2b:80:8d:1f:32:
                    a9:dd:40:74:26:6f:97:0f:41:bd:d5:8b:64:ab:df:
                    66:26:83
                Exponent: 65537 (0x10001)
        X509v3 extensions:
            X509v3 Key Usage: critical
                Certificate Sign, CRL Sign
            X509v3 Basic Constraints: critical
                CA:TRUE
            X509v3 Subject Key Identifier: 
                D0:AB:AE:87:95:78:09:46:A2:05:75:AD:4C:AC:11:A2:AC:1A:92:D4
            X509v3 Authority Key Identifier: 
                keyid:72:25:70:95:87:26:39:28:AD:8A:BB:34:93:33:6A:51:3E:7D:18:52

            Authority Information Access: 
                CA Issuers - URI:https://elbosso.github.io/x509//Test1_Root_CA-ca.crt

            X509v3 CRL Distribution Points: 

                Full Name:
                  URI:https://elbosso.github.io/x509//Test1_Root_CA-ca.crl

    Signature Algorithm: sha512WithRSAEncryption
         07:39:93:84:bc:02:e9:3f:e4:61:f9:82:58:97:01:dd:91:1d:
         ad:02:51:e5:60:74:fe:c8:40:7e:9b:fe:74:24:71:96:df:88:
         6e:72:07:6b:29:a4:4c:de:61:45:4c:bb:10:6c:8e:ff:0f:43:
         55:9d:9f:80:9b:14:76:ed:e8:eb:fe:99:0f:77:35:1e:52:81:
         1b:56:a5:70:ed:f6:44:2a:58:bf:74:5c:29:5f:ed:4f:e2:fe:
         23:aa:cf:b4:06:c6:47:2b:c0:aa:89:99:86:d7:c6:f0:2b:18:
         cc:40:b5:b5:e8:2f:a0:54:42:e7:b7:ba:ac:81:09:72:43:c1:
         68:64:c6:84:82:16:4f:04:56:15:7a:c0:a2:26:8f:82:e1:69:
         35:c7:15:32:56:0a:2b:c1:dc:04:eb:92:88:b0:e9:e3:6b:7a:
         d7:a5:81:59:fb:9e:e8:6c:de:88:0a:b4:7f:5c:79:ae:2d:2a:
         f1:69:b6:e9:89:54:6c:1e:94:cf:c0:8f:54:ae:7d:56:02:fa:
         e1:fa:20:03:0f:b5:e9:bc:fc:05:45:dd:03:0d:7b:6c:06:89:
         b7:3d:48:66:fb:11:21:40:31:f4:71:7d:4f:07:17:11:3a:5f:
         41:e9:62:91:7d:56:38:03:14:27:68:e4:d0:58:87:ae:4c:e7:
         53:b6:c6:22:3b:42:b5:4a:68:15:93:44:d3:8d:7e:18:06:e2:
         0a:b8:18:b5:14:9d:2a:ca:57:61:7f:d0:9f:9e:8c:01:7a:be:
         6b:eb:1e:6e:90:d9:33:bf:23:51:50:7c:89:78:9a:4e:fe:a0:
         e1:53:de:e9:6b:58:e9:18:13:e4:10:6d:22:3f:5e:19:08:6f:
         99:56:b3:4d:4c:0f:d4:6d:a7:e0:1e:8f:fd:32:b3:a2:cf:0a:
         1a:4a:0b:bb:35:7f:bc:9d:26:d7:0f:43:df:97:cb:ac:15:40:
         73:e9:77:ab:3b:31:98:90:b5:e5:61:15:99:b3:ce:35:a3:74:
         d3:2e:88:28:93:b6:c6:ba:0e:d7:51:fc:fd:ab:b7:5e:7b:52:
         47:8c:28:be:3a:cf:c2:01:f9:b7:eb:8d:fd:c5:ce:86:9a:df:
         c2:7c:87:97:20:e4:b8:d5:bb:4f:f8:c6:4e:89:70:eb:b2:00:
         4c:59:b3:7a:0d:0a:a1:67:f0:12:15:ae:2a:b1:85:37:78:44:
         fc:82:5d:69:17:c6:e8:42:4a:53:90:ae:ed:e5:a1:92:0a:a3:
         42:ec:ce:8b:c4:2a:65:3e:be:b4:5c:9e:eb:a2:2b:60:7a:c5:
         72:c5:e8:72:49:22:2f:11:98:91:e2:99:99:0d:c0:85:8b:e8:
         10:5f:70:e2:44:38:e4:43
-----BEGIN CERTIFICATE-----
MIIGOTCCBCGgAwIBAgIBAjANBgkqhkiG9w0BAQ0FADBcMQswCQYDVQQGEwJERTEZ
MBcGA1UECgwQRGFtYXNjaGtlc3RyLiAxMTEWMBQGA1UECwwNQXJiZWl0c3ppbW1l
cjEaMBgGA1UEAwwRVGVzdDEgTGFiIFJvb3QgQ0EwHhcNMjEwNDExMDc0MzQ4WhcN
MjQwNDExMjM1OTU5WjBkMQswCQYDVQQGEwJERTEZMBcGA1UECgwQRGFtYXNjaGtl
c3RyLiAxMTEWMBQGA1UECwwNQXJiZWl0c3ppbW1lcjEiMCAGA1UEAwwZVGVzdDEg
TGFiIEludGVybWVkaWFyeSBDQTCCAiIwDQYJKoZIhvcNAQEBBQADggIPADCCAgoC
ggIBALUcP9SPUo9mr64LfEJIsi7bVPwcHiyMmR97V4fimajuCJmm14qMgNtYPYjX
meuEBuHEMQq+kq5ssyDXvGZxFDK5C7UcCHZ1H3o0tVhCV0pdKrc3oKlEhzqwIImM
Lnp0U1lZihHQfmBR24TtWNwE2miM+saSQ3+faUlDGRCzR8eD5U2IifDMP2yhgad9
lF7vB19KZG/TbgWRfj746eCiJpxkm/xCH3FCHAfSABeCpT+s4pmLWozVCMA1lz7g
K94YmzlQ8HbLc8BMi4kt5OPhmmE7yJ3ZyrfCpMPR4TxgGRS1sT8X5asRDSxj0F9v
aAiK54W20fMhhqqnK4BpdX1KS93XVkIN7tORsZJafJ3blth6JsPjubyIk5wcptZh
Gh5Rbh5thOkjvmpBaMCctZo8FUN5MEg8u6VufAT7HPvxieZYdARPBJZZNPw9nlhu
s8Rf+9lOc+VgX61RLuvZ34KifDDdHqWoQdG2bvP+VqZA24yIO1p6yfOqmklWMl4M
iP92cyufEFbcIE245LDbolsVQKmdVKFi8Ob2+Vty8M2O/KwVI427NLvrhdVjaHDc
eO6VGx5H7CXm2jjpv86FlPun9Pi81wltsSP8lkrH5R8Fwzsi7ou6E1FRPDb/Rtau
kpiA04fphrUETHqtjyuAjR8yqd1AdCZvlw9BvdWLZKvfZiaDAgMBAAGjgf0wgfow
DgYDVR0PAQH/BAQDAgEGMA8GA1UdEwEB/wQFMAMBAf8wHQYDVR0OBBYEFNCrroeV
eAlGogV1rUysEaKsGpLUMB8GA1UdIwQYMBaAFHIlcJWHJjkorYq7NJMzalE+fRhS
MFAGCCsGAQUFBwEBBEQwQjBABggrBgEFBQcwAoY0aHR0cHM6Ly9lbGJvc3NvLmdp
dGh1Yi5pby94NTA5Ly9UZXN0MV9Sb290X0NBLWNhLmNydDBFBgNVHR8EPjA8MDqg
OKA2hjRodHRwczovL2VsYm9zc28uZ2l0aHViLmlvL3g1MDkvL1Rlc3QxX1Jvb3Rf
Q0EtY2EuY3JsMA0GCSqGSIb3DQEBDQUAA4ICAQAHOZOEvALpP+Rh+YJYlwHdkR2t
AlHlYHT+yEB+m/50JHGW34hucgdrKaRM3mFFTLsQbI7/D0NVnZ+AmxR27ejr/pkP
dzUeUoEbVqVw7fZEKli/dFwpX+1P4v4jqs+0BsZHK8CqiZmG18bwKxjMQLW16C+g
VELnt7qsgQlyQ8FoZMaEghZPBFYVesCiJo+C4Wk1xxUyVgorwdwE65KIsOnja3rX
pYFZ+57obN6ICrR/XHmuLSrxabbpiVRsHpTPwI9Urn1WAvrh+iADD7XpvPwFRd0D
DXtsBom3PUhm+xEhQDH0cX1PBxcROl9B6WKRfVY4AxQnaOTQWIeuTOdTtsYiO0K1
SmgVk0TTjX4YBuIKuBi1FJ0qyldhf9CfnowBer5r6x5ukNkzvyNRUHyJeJpO/qDh
U97pa1jpGBPkEG0iP14ZCG+ZVrNNTA/UbafgHo/9MrOizwoaSgu7NX+8nSbXD0Pf
l8usFUBz6XerOzGYkLXlYRWZs841o3TTLogok7bGug7XUfz9q7dee1JHjCi+Os/C
Afm36439xc6Gmt/CfIeXIOS41btP+MZOiXDrsgBMWbN6DQqhZ/ASFa4qsYU3eET8
gl1pF8boQkpTkK7t5aGSCqNC7M6LxCplPr60XJ7roitgesVyxehySSIvEZiR4pmZ
DcCFi+gQX3DiRDjkQw==
-----END CERTIFICATE-----
