Certificate:
    Data:
        Version: 3 (0x2)
        Serial Number: 1 (0x1)
        Signature Algorithm: sha512WithRSAEncryption
        Issuer: C=DE, O=Damaschkestr. 11, OU=Arbeitszimmer, CN=Test1 Lab Intermediary CA
        Validity
            Not Before: Dec  9 13:44:45 2022 GMT
            Not After : Dec  9 23:59:59 2025 GMT
        Subject: C=DE, O=Damaschkestr. 11, OU=Arbeitszimmer, CN=Test1 Lab Component CA
        Subject Public Key Info:
            Public Key Algorithm: rsaEncryption
                RSA Public-Key: (4096 bit)
                Modulus:
                    00:a0:25:7e:10:c5:2c:ef:ad:b0:13:5a:1b:a9:12:
                    e4:86:14:2d:67:37:89:c1:51:64:30:b9:e8:dd:a4:
                    cd:32:7a:48:43:7e:e2:58:20:59:55:16:f4:d2:98:
                    d2:f0:14:54:b5:a1:77:ed:36:f1:98:0e:82:7e:b8:
                    3a:bc:a2:39:68:c9:ca:75:67:72:cb:c2:ff:3b:1b:
                    64:cc:a8:5d:5a:3f:ba:6b:a1:51:ea:95:e2:ff:2b:
                    05:68:ae:e5:03:52:aa:dc:46:c1:7a:e3:e7:c0:17:
                    83:12:87:4c:5e:c4:37:d1:b6:fb:f0:f0:33:2d:ed:
                    cc:82:bf:4c:bb:97:9d:8a:dd:08:54:1e:e0:e7:d9:
                    60:ba:e9:0b:a7:4c:3a:4d:49:6f:41:52:fa:97:62:
                    c1:95:30:31:ba:c3:bf:46:42:0d:e7:2a:30:3e:54:
                    ee:e8:10:f4:49:07:96:f6:c4:65:59:7c:1a:f5:da:
                    7c:cc:79:64:6a:4b:08:13:e8:24:34:8b:8a:36:4b:
                    61:64:e2:29:6d:2b:22:e9:fa:8a:e5:aa:2f:56:82:
                    c0:e6:75:aa:ad:32:a8:8d:7c:aa:21:ac:69:87:f0:
                    a0:6c:6f:50:5f:61:d1:1b:c6:98:49:9e:ac:56:a5:
                    17:1a:dc:0a:eb:2e:07:75:df:33:ce:b3:5d:e9:6b:
                    82:cd:23:41:0f:69:8f:80:da:f5:36:72:a7:aa:ef:
                    b5:ac:4f:25:c4:18:e4:24:e6:5b:a2:ab:35:24:89:
                    f7:a8:95:c1:55:ac:0d:e5:da:c3:f7:39:e4:60:3b:
                    d5:d2:f5:9b:23:1e:fe:f8:75:20:55:71:31:d5:9f:
                    7a:7b:e9:eb:65:fd:69:d5:06:e4:9f:0f:04:44:62:
                    8a:90:fb:74:6d:2d:98:e2:aa:12:ea:f7:60:b1:2b:
                    fe:a7:fe:bc:ca:65:f6:64:41:bc:48:c5:24:1d:23:
                    a5:61:41:5c:1c:5d:cf:e9:66:42:c4:ad:a1:41:5a:
                    42:09:3f:a4:1c:73:c9:2c:8a:88:44:38:3d:a1:38:
                    1c:a3:df:f9:0e:c8:dd:f8:fe:29:e0:55:1e:62:ee:
                    aa:97:da:d1:69:16:99:a0:c6:7b:b4:d5:30:87:ac:
                    cc:c6:ab:e5:a0:2e:44:00:6a:b5:78:12:1f:3c:82:
                    56:a4:46:92:c5:2a:9e:cd:fb:b3:bc:c9:6f:b9:aa:
                    b5:4f:ed:1a:0b:ad:f1:0d:5b:4b:e3:bd:b4:a6:40:
                    5b:ee:70:cc:5e:b8:a9:ff:47:54:fd:78:a4:89:06:
                    87:c0:89:66:95:92:6e:f5:66:7f:8f:d8:cc:6d:2c:
                    e3:c1:50:5a:e8:fc:2c:f5:ce:0f:a9:b1:0c:41:55:
                    7e:b9:cf
                Exponent: 65537 (0x10001)
        X509v3 extensions:
            X509v3 Key Usage: critical
                Certificate Sign, CRL Sign
            X509v3 Basic Constraints: critical
                CA:TRUE, pathlen:0
            X509v3 Subject Key Identifier: 
                56:67:AD:11:9B:0E:21:E1:C2:BA:27:92:FD:C4:11:0F:FE:D5:EC:D9
            X509v3 Authority Key Identifier: 
                keyid:D6:D5:FF:C0:0E:9D:F8:AB:21:12:74:34:FF:F8:6A:27:18:25:C0:91

            Authority Information Access: 
                CA Issuers - URI:https://elbosso.github.io/x509//Test1_Intermediary_CA-ca.crt

            X509v3 CRL Distribution Points: 

                Full Name:
                  URI:https://elbosso.github.io/x509//Test1_Intermediary_CA-ca.crl

    Signature Algorithm: sha512WithRSAEncryption
         49:67:d6:1c:16:aa:cf:59:e7:37:10:de:b1:36:d1:92:ff:4e:
         0e:7d:ed:46:1f:30:34:a7:ef:bc:9c:9a:fd:0a:5c:46:3c:11:
         da:b3:13:2c:22:77:87:f2:ff:8f:32:e7:96:49:2b:19:25:1c:
         64:64:13:28:f8:72:0f:55:f6:9c:d7:4c:e1:86:c1:b2:98:ff:
         99:80:c8:ce:72:07:3e:8b:68:b4:e1:c3:fb:42:bc:0b:8b:f0:
         f5:8c:90:60:0c:1e:b8:a3:ad:d3:7b:f3:95:bb:19:50:a1:53:
         be:05:eb:49:6f:5b:c0:09:62:23:12:45:fd:9b:76:52:e3:c7:
         d9:c6:83:58:6b:4e:ac:cf:e6:46:27:fa:24:9f:c5:97:68:2d:
         86:28:9d:08:a8:e5:87:d6:82:43:0b:7d:86:ea:07:98:dc:df:
         8b:05:7a:0b:84:5b:a0:2e:28:0a:53:b4:06:9b:08:1b:d2:01:
         08:bd:f9:3d:f1:55:91:5a:69:bb:ff:5e:8b:b7:c8:9f:61:de:
         ea:03:7c:aa:51:1c:16:c6:a2:02:c2:d9:cc:7a:ff:db:17:99:
         94:88:5a:d0:d8:7b:84:53:f3:dd:af:b8:dd:41:ed:f4:6e:d9:
         f2:14:30:8e:7e:f3:ad:a5:66:8b:36:d7:73:05:af:24:f7:07:
         cf:16:03:e3:fa:f6:d4:9b:94:e3:6f:df:b7:1a:69:f1:39:79:
         b5:af:0a:dd:8e:36:78:9f:03:7d:ff:0b:0a:70:06:17:16:7a:
         0d:ee:97:30:40:c7:bf:99:99:a1:84:18:5e:31:bc:b0:40:e4:
         a4:5c:10:7e:ed:80:f3:22:a3:bd:3f:5b:00:56:1e:74:b1:eb:
         fc:33:5b:b0:6b:04:0d:ee:70:34:16:64:70:4b:e4:87:7b:b7:
         89:9d:d5:36:7d:9d:02:1d:07:c1:4f:d5:57:cf:a6:45:40:97:
         b6:f1:7b:68:62:b0:69:ed:22:63:f1:04:c0:db:60:1d:bb:cd:
         ef:e1:71:0b:3a:65:32:c6:18:72:d7:35:bc:ad:74:b1:e9:77:
         55:e2:61:0b:35:d0:70:7c:e2:e9:2c:95:de:a7:61:1a:7b:8a:
         b7:ba:a8:d8:b9:ee:ff:3e:ff:d4:8d:95:27:22:d0:7e:1d:21:
         45:9d:eb:2c:cf:cb:c1:1e:ec:94:39:e6:91:3a:fa:88:d4:6a:
         5a:2f:7d:ad:0d:29:7c:48:5e:f2:27:d1:bc:fb:1e:c5:dd:90:
         6d:be:17:b6:6e:9b:95:4b:e0:b2:87:7a:db:6e:37:a5:5c:ec:
         bd:66:04:70:0a:b8:64:d7:0b:14:00:c5:36:20:c4:3a:e4:34:
         9e:24:09:e4:16:0e:99:da
-----BEGIN CERTIFICATE-----
MIIGUzCCBDugAwIBAgIBATANBgkqhkiG9w0BAQ0FADBkMQswCQYDVQQGEwJERTEZ
MBcGA1UECgwQRGFtYXNjaGtlc3RyLiAxMTEWMBQGA1UECwwNQXJiZWl0c3ppbW1l
cjEiMCAGA1UEAwwZVGVzdDEgTGFiIEludGVybWVkaWFyeSBDQTAeFw0yMjEyMDkx
MzQ0NDVaFw0yNTEyMDkyMzU5NTlaMGExCzAJBgNVBAYTAkRFMRkwFwYDVQQKDBBE
YW1hc2Noa2VzdHIuIDExMRYwFAYDVQQLDA1BcmJlaXRzemltbWVyMR8wHQYDVQQD
DBZUZXN0MSBMYWIgQ29tcG9uZW50IENBMIICIjANBgkqhkiG9w0BAQEFAAOCAg8A
MIICCgKCAgEAoCV+EMUs762wE1obqRLkhhQtZzeJwVFkMLno3aTNMnpIQ37iWCBZ
VRb00pjS8BRUtaF37TbxmA6Cfrg6vKI5aMnKdWdyy8L/OxtkzKhdWj+6a6FR6pXi
/ysFaK7lA1Kq3EbBeuPnwBeDEodMXsQ30bb78PAzLe3Mgr9Mu5edit0IVB7g59lg
uukLp0w6TUlvQVL6l2LBlTAxusO/RkIN5yowPlTu6BD0SQeW9sRlWXwa9dp8zHlk
aksIE+gkNIuKNkthZOIpbSsi6fqK5aovVoLA5nWqrTKojXyqIaxph/CgbG9QX2HR
G8aYSZ6sVqUXGtwK6y4Hdd8zzrNd6WuCzSNBD2mPgNr1NnKnqu+1rE8lxBjkJOZb
oqs1JIn3qJXBVawN5drD9znkYDvV0vWbIx7++HUgVXEx1Z96e+nrZf1p1Qbknw8E
RGKKkPt0bS2Y4qoS6vdgsSv+p/68ymX2ZEG8SMUkHSOlYUFcHF3P6WZCxK2hQVpC
CT+kHHPJLIqIRDg9oTgco9/5Dsjd+P4p4FUeYu6ql9rRaRaZoMZ7tNUwh6zMxqvl
oC5EAGq1eBIfPIJWpEaSxSqezfuzvMlvuaq1T+0aC63xDVtL4720pkBb7nDMXrip
/0dU/XikiQaHwIlmlZJu9WZ/j9jMbSzjwVBa6Pws9c4PqbEMQVV+uc8CAwEAAaOC
AREwggENMA4GA1UdDwEB/wQEAwIBBjASBgNVHRMBAf8ECDAGAQH/AgEAMB0GA1Ud
DgQWBBRWZ60Rmw4h4cK6J5L9xBEP/tXs2TAfBgNVHSMEGDAWgBTW1f/ADp34qyES
dDT/+GonGCXAkTBYBggrBgEFBQcBAQRMMEowSAYIKwYBBQUHMAKGPGh0dHBzOi8v
ZWxib3Nzby5naXRodWIuaW8veDUwOS8vVGVzdDFfSW50ZXJtZWRpYXJ5X0NBLWNh
LmNydDBNBgNVHR8ERjBEMEKgQKA+hjxodHRwczovL2VsYm9zc28uZ2l0aHViLmlv
L3g1MDkvL1Rlc3QxX0ludGVybWVkaWFyeV9DQS1jYS5jcmwwDQYJKoZIhvcNAQEN
BQADggIBAEln1hwWqs9Z5zcQ3rE20ZL/Tg597UYfMDSn77ycmv0KXEY8EdqzEywi
d4fy/48y55ZJKxklHGRkEyj4cg9V9pzXTOGGwbKY/5mAyM5yBz6LaLThw/tCvAuL
8PWMkGAMHrijrdN785W7GVChU74F60lvW8AJYiMSRf2bdlLjx9nGg1hrTqzP5kYn
+iSfxZdoLYYonQio5YfWgkMLfYbqB5jc34sFeguEW6AuKApTtAabCBvSAQi9+T3x
VZFaabv/Xou3yJ9h3uoDfKpRHBbGogLC2cx6/9sXmZSIWtDYe4RT892vuN1B7fRu
2fIUMI5+862lZos213MFryT3B88WA+P69tSblONv37caafE5ebWvCt2ONnifA33/
CwpwBhcWeg3ulzBAx7+ZmaGEGF4xvLBA5KRcEH7tgPMio70/WwBWHnSx6/wzW7Br
BA3ucDQWZHBL5Id7t4md1TZ9nQIdB8FP1VfPpkVAl7bxe2hisGntImPxBMDbYB27
ze/hcQs6ZTLGGHLXNbytdLHpd1XiYQs10HB84uksld6nYRp7ire6qNi57v8+/9SN
lSci0H4dIUWd6yzPy8Ee7JQ55pE6+ojUalovfa0NKXxIXvIn0bz7HsXdkG2+F7Zu
m5VL4LKHettuN6Vc7L1mBHAKuGTXCxQAxTYgxDrkNJ4kCeQWDpna
-----END CERTIFICATE-----
