Certificate:
    Data:
        Version: 3 (0x2)
        Serial Number: 4 (0x4)
        Signature Algorithm: sha512WithRSAEncryption
        Issuer: C=DE, O=Damaschkestr. 11, OU=Arbeitszimmer, CN=Dama11 Lab Intermediary Test CA
        Validity
            Not Before: Oct 27 16:04:08 2019 GMT
            Not After : Oct 27 23:59:59 2022 GMT
        Subject: C=DE, O=Damaschkestr. 11, OU=Arbeitszimmer, CN=test comp
        Subject Public Key Info:
            Public Key Algorithm: rsaEncryption
                RSA Public-Key: (1024 bit)
                Modulus:
                    00:ee:20:0f:8d:d3:63:da:28:82:fe:04:4a:aa:12:
                    02:52:19:39:54:76:2c:7d:b2:15:7f:70:ff:c6:42:
                    6b:0a:fb:db:d3:c3:af:b3:3d:36:c0:b0:9e:f5:7d:
                    89:f9:60:d4:33:c5:52:7f:d4:f6:9b:ad:ad:af:70:
                    ef:6e:7d:63:85:b6:f3:fe:60:9a:ed:e4:a5:07:ec:
                    70:df:c7:f1:be:29:ee:3b:ce:70:86:10:6d:7d:7c:
                    47:d1:c0:53:08:d3:c0:9c:00:77:a8:c0:27:c8:d8:
                    9d:80:fd:88:35:78:ae:aa:11:6e:0b:0b:68:23:d9:
                    17:9f:9b:5b:02:1d:b9:f0:79
                Exponent: 65537 (0x10001)
        X509v3 extensions:
            X509v3 Key Usage: critical
                Certificate Sign, CRL Sign
            X509v3 Basic Constraints: critical
                CA:TRUE, pathlen:0
            X509v3 Subject Key Identifier: 
                58:BB:4C:11:9B:02:17:F1:93:EA:EE:FC:D7:D0:E0:38:28:2F:E9:9A
            X509v3 Authority Key Identifier: 
                keyid:E8:9A:25:D6:31:41:C2:C7:43:10:47:DA:64:E7:69:4A:C3:F3:4B:27

            Authority Information Access: 
                CA Issuers - URI:https://elbosso.github.io/x509//Dama11_Intermediary_Test_CA-ca.crt

            X509v3 CRL Distribution Points: 

                Full Name:
                  URI:https://elbosso.github.io/x509//Dama11_Intermediary_Test_CA-ca.crl

    Signature Algorithm: sha512WithRSAEncryption
         12:7c:51:56:31:ae:4b:6c:0a:9b:b8:38:83:e6:f5:3d:69:fa:
         37:d5:97:90:21:91:f6:20:70:cb:76:8f:a8:a0:7a:87:3a:bd:
         5a:39:dc:06:b2:6a:b0:c3:68:2e:08:0e:1a:6b:f2:e2:83:ef:
         e8:82:73:52:83:3e:6e:a6:62:57:11:4d:d3:80:28:ba:cd:3e:
         c5:8b:b8:f1:00:09:71:8e:d1:d2:99:2b:b9:e7:bf:6a:c3:37:
         40:5e:53:19:dc:e6:76:d1:53:b7:2d:43:38:52:5b:a4:ee:44:
         da:ab:ae:0b:4d:38:b7:37:05:6d:a3:4c:c2:bb:cf:5b:e1:51:
         d5:f6:63:74:c2:37:e9:fb:ee:95:67:7d:85:b3:44:c9:ba:e2:
         a5:5a:9d:f1:c2:76:3b:e3:01:d1:92:6c:92:f3:49:ed:cb:d5:
         71:34:4e:f7:0e:e2:1f:66:86:95:7a:36:87:10:b5:7b:de:1b:
         40:cb:c9:83:6e:80:c4:ce:dd:19:5a:2b:be:00:8c:79:57:e6:
         b5:ff:ca:05:cd:02:61:e8:b6:b1:d7:83:09:60:6f:72:db:1e:
         4a:41:30:48:aa:d4:f0:bf:c5:48:08:af:4a:97:89:ed:ab:63:
         ff:fe:cd:5e:1d:38:93:a7:a0:83:ec:c5:22:1b:4b:6e:ae:72:
         9e:67:2d:d0:32:60:06:2a:0e:06:ce:d4:39:e2:34:f8:46:6f:
         4f:b3:15:ec:4c:b6:15:08:c4:9e:67:a3:e9:cb:67:84:ec:a6:
         6f:06:1e:04:a8:30:d8:c7:f9:e2:ad:2e:c4:45:ab:82:9f:f3:
         41:a9:54:16:df:af:c6:c6:03:89:ee:b6:61:52:82:7d:91:40:
         b6:ed:0c:67:d3:dd:1a:0d:9f:0b:6f:19:f1:5a:75:1e:3d:26:
         df:05:42:dd:fb:c6:4e:0d:d4:9b:91:45:fd:36:3c:fe:ba:8d:
         00:ea:44:1d:8a:f2:89:02:22:4d:dc:f0:f7:b6:f6:f2:22:7c:
         c0:49:30:17:8c:75:12:7c:9f:38:66:93:c9:7c:47:7b:53:bf:
         ae:16:87:12:a6:31:c6:e8:d7:54:7b:f5:42:3c:9e:ab:5d:32:
         f8:39:b4:ed:0b:06:e7:93:11:88:fd:2f:f3:e8:02:de:b9:5a:
         f1:bd:29:33:be:74:23:8e:94:7f:af:2e:e9:02:81:d6:a5:8b:
         bb:a9:5c:1d:b8:04:6e:05:2b:e8:89:e9:60:77:df:6e:85:73:
         6d:89:10:f7:8b:e5:01:04:66:62:da:34:e6:46:f3:fd:b1:02:
         7c:cb:97:29:b1:ef:25:6e:29:bf:fb:0e:76:d3:02:92:ff:75:
         95:8f:76:29:27:4c:9e:b8
-----BEGIN CERTIFICATE-----
MIIE1DCCArygAwIBAgIBBDANBgkqhkiG9w0BAQ0FADBqMQswCQYDVQQGEwJERTEZ
MBcGA1UECgwQRGFtYXNjaGtlc3RyLiAxMTEWMBQGA1UECwwNQXJiZWl0c3ppbW1l
cjEoMCYGA1UEAwwfRGFtYTExIExhYiBJbnRlcm1lZGlhcnkgVGVzdCBDQTAeFw0x
OTEwMjcxNjA0MDhaFw0yMjEwMjcyMzU5NTlaMFQxCzAJBgNVBAYTAkRFMRkwFwYD
VQQKDBBEYW1hc2Noa2VzdHIuIDExMRYwFAYDVQQLDA1BcmJlaXRzemltbWVyMRIw
EAYDVQQDDAl0ZXN0IGNvbXAwgZ8wDQYJKoZIhvcNAQEBBQADgY0AMIGJAoGBAO4g
D43TY9oogv4ESqoSAlIZOVR2LH2yFX9w/8ZCawr729PDr7M9NsCwnvV9iflg1DPF
Un/U9putra9w7259Y4W28/5gmu3kpQfscN/H8b4p7jvOcIYQbX18R9HAUwjTwJwA
d6jAJ8jYnYD9iDV4rqoRbgsLaCPZF5+bWwIdufB5AgMBAAGjggEdMIIBGTAOBgNV
HQ8BAf8EBAMCAQYwEgYDVR0TAQH/BAgwBgEB/wIBADAdBgNVHQ4EFgQUWLtMEZsC
F/GT6u7819DgOCgv6ZowHwYDVR0jBBgwFoAU6Jol1jFBwsdDEEfaZOdpSsPzSycw
XgYIKwYBBQUHAQEEUjBQME4GCCsGAQUFBzAChkJodHRwczovL2VsYm9zc28uZ2l0
aHViLmlvL3g1MDkvL0RhbWExMV9JbnRlcm1lZGlhcnlfVGVzdF9DQS1jYS5jcnQw
UwYDVR0fBEwwSjBIoEagRIZCaHR0cHM6Ly9lbGJvc3NvLmdpdGh1Yi5pby94NTA5
Ly9EYW1hMTFfSW50ZXJtZWRpYXJ5X1Rlc3RfQ0EtY2EuY3JsMA0GCSqGSIb3DQEB
DQUAA4ICAQASfFFWMa5LbAqbuDiD5vU9afo31ZeQIZH2IHDLdo+ooHqHOr1aOdwG
smqww2guCA4aa/Lig+/ognNSgz5upmJXEU3TgCi6zT7Fi7jxAAlxjtHSmSu5579q
wzdAXlMZ3OZ20VO3LUM4Uluk7kTaq64LTTi3NwVto0zCu89b4VHV9mN0wjfp++6V
Z32Fs0TJuuKlWp3xwnY74wHRkmyS80nty9VxNE73DuIfZoaVejaHELV73htAy8mD
boDEzt0ZWiu+AIx5V+a1/8oFzQJh6Lax14MJYG9y2x5KQTBIqtTwv8VICK9Kl4nt
q2P//s1eHTiTp6CD7MUiG0turnKeZy3QMmAGKg4GztQ54jT4Rm9PsxXsTLYVCMSe
Z6Ppy2eE7KZvBh4EqDDYx/nirS7ERauCn/NBqVQW36/GxgOJ7rZhUoJ9kUC27Qxn
090aDZ8LbxnxWnUePSbfBULd+8ZODdSbkUX9Njz+uo0A6kQdivKJAiJN3PD3tvby
InzASTAXjHUSfJ84ZpPJfEd7U7+uFocSpjHG6NdUe/VCPJ6rXTL4ObTtCwbnkxGI
/S/z6ALeuVrxvSkzvnQjjpR/ry7pAoHWpYu7qVwduARuBSvoielgd99uhXNtiRD3
i+UBBGZi2jTmRvP9sQJ8y5cpse8lbim/+w520wKS/3WVj3YpJ0yeuA==
-----END CERTIFICATE-----
