Certificate:
    Data:
        Version: 3 (0x2)
        Serial Number: 12 (0xc)
        Signature Algorithm: sha512WithRSAEncryption
        Issuer: C=DE, O=Damaschkestr. 11, OU=Arbeitszimmer, CN=Dama11 Lab Intermediary Test CA
        Validity
            Not Before: Oct  5 07:06:51 2025 GMT
            Not After : Nov  6 23:59:59 2030 GMT
        Subject: C=DE, O=Damaschkestr. 11, OU=Arbeitszimmer, CN=Test1 Lab Intermediary CA
        Subject Public Key Info:
            Public Key Algorithm: rsaEncryption
                Public-Key: (4096 bit)
                Modulus:
                    00:aa:7e:45:7d:f4:c5:8f:3a:39:32:af:76:9c:26:
                    0b:5e:36:89:c6:1c:a5:24:51:3a:d3:b4:33:11:cc:
                    90:ed:72:c4:93:68:ec:6a:3b:93:88:ec:ae:74:dc:
                    63:05:87:4f:22:5c:d0:7d:b2:5d:43:ce:79:ca:89:
                    d0:3f:59:5c:86:be:7d:55:5b:d3:ea:94:0a:b5:bd:
                    5b:06:b3:ca:cf:4e:91:e1:43:df:05:ed:fc:e3:6e:
                    70:d5:cc:eb:45:ad:f6:c5:57:8c:73:1c:38:67:01:
                    a9:95:58:b5:00:8f:4f:db:61:c6:f6:20:cf:03:23:
                    a6:c4:41:ed:c6:33:32:94:09:a1:45:1e:2f:09:c9:
                    78:fa:1d:29:72:66:da:e0:29:83:25:c5:04:08:7e:
                    a6:c8:eb:27:29:65:33:e3:a6:00:a4:9a:e5:40:1f:
                    16:7e:20:57:2e:8d:bb:e0:7b:8a:22:44:c8:ba:de:
                    e8:80:26:c1:4b:91:b6:f3:1d:a3:49:4b:f0:2d:bd:
                    07:f7:6a:c2:c2:bd:b3:6f:70:8c:8a:22:77:2d:77:
                    1c:04:d3:5f:b9:a5:7c:8a:70:39:cf:12:85:32:31:
                    67:eb:20:3a:b6:ba:f9:d2:68:57:1e:cc:fb:05:32:
                    e2:a5:96:e5:ee:2c:90:a7:ae:5e:b1:d5:c2:4c:15:
                    61:24:3e:5e:b9:31:47:3e:8a:d6:75:f0:c0:52:10:
                    08:f2:c6:97:07:72:4d:e2:9f:27:72:da:be:f1:a4:
                    e7:3f:ab:be:38:17:c9:82:25:5c:a0:a0:6a:cc:65:
                    03:93:c9:7b:cf:37:0d:79:05:0f:f7:c2:59:49:df:
                    42:02:13:26:c1:43:5e:1b:b5:75:83:9e:54:19:21:
                    fc:5c:3c:34:aa:c3:88:12:f2:40:63:7f:01:c5:46:
                    f4:ee:02:51:a2:de:f2:80:61:57:53:07:a7:06:82:
                    1e:84:94:ad:0d:0f:ea:e0:11:34:4b:3e:f4:71:59:
                    28:fd:92:4a:7a:a8:99:58:77:ec:a9:4f:1e:56:4c:
                    41:db:07:39:3f:48:56:cf:d1:7a:b1:e4:73:c3:2e:
                    8e:81:5f:3b:61:d1:2a:a2:24:18:68:6f:df:53:79:
                    b9:2c:3f:1d:05:2e:b4:26:07:20:df:c4:28:30:12:
                    07:39:0a:f6:54:d2:38:1a:cf:c4:c1:e6:30:b2:80:
                    e4:96:c5:1a:74:84:4b:af:2f:2f:81:09:ee:31:fe:
                    22:f7:20:9a:2c:92:77:67:61:a5:9f:42:12:31:c5:
                    84:4e:31:b1:12:e2:52:05:17:b3:a1:7e:91:2e:76:
                    28:07:67:a5:1d:97:fa:33:c3:45:c7:9e:ff:95:1b:
                    f0:e5:23
                Exponent: 65537 (0x10001)
        X509v3 extensions:
            X509v3 Key Usage: critical
                Certificate Sign, CRL Sign
            X509v3 Basic Constraints: critical
                CA:TRUE, pathlen:1
            X509v3 Subject Key Identifier: 
                D6:D5:FF:C0:0E:9D:F8:AB:21:12:74:34:FF:F8:6A:27:18:25:C0:91
            X509v3 Authority Key Identifier: 
                E8:9A:25:D6:31:41:C2:C7:43:10:47:DA:64:E7:69:4A:C3:F3:4B:27
            Authority Information Access: 
                CA Issuers - URI:https://elbosso.github.io/x509//Dama11_Intermediary_Test_CA-ca.crt
            X509v3 CRL Distribution Points: 
                Full Name:
                  URI:https://elbosso.github.io/x509//Dama11_Intermediary_Test_CA-ca.crl
    Signature Algorithm: sha512WithRSAEncryption
    Signature Value:
        44:55:08:f5:18:f6:19:89:38:8a:b4:70:d7:ae:31:42:0b:96:
        07:43:e7:2e:f4:8c:db:31:bb:5f:5b:78:30:3c:33:ad:a0:66:
        dd:4a:02:c8:f3:00:8d:18:33:c9:48:7c:80:1d:f6:e2:99:e6:
        64:6c:a9:ef:1e:4a:0f:93:c1:ef:7a:6a:d9:b3:3d:be:07:a8:
        21:a7:95:95:a7:07:0a:56:38:ce:7f:71:db:6c:df:ae:fe:42:
        f8:4e:d7:50:37:54:b4:9c:f5:43:b2:72:d4:99:80:3f:35:36:
        53:42:2d:12:ab:b9:9f:de:4a:ab:d9:46:79:e2:b9:a5:fb:98:
        f6:94:ea:7c:1f:7b:23:2e:35:0b:e8:c9:e6:5b:68:9b:37:30:
        77:f4:62:a6:99:e0:9a:f9:3a:22:78:4d:af:b0:a8:0b:40:0c:
        60:dd:e1:e4:6b:f9:16:42:a8:04:0a:3a:74:1a:e9:7f:95:9d:
        2c:d1:c5:07:3d:f4:26:03:98:d0:51:17:b0:e7:7f:a1:9a:da:
        6f:cd:67:59:07:e7:29:4e:93:ef:13:95:5b:5b:3c:b8:e0:2f:
        a4:30:26:8f:76:4c:55:87:80:e0:c0:91:9b:90:33:8c:33:f3:
        32:b0:2c:ab:01:e6:12:34:32:29:74:6e:7e:e8:0c:ab:f5:6a:
        32:cc:79:be:9c:80:f3:90:c7:7a:c6:e0:fc:5d:ca:66:10:67:
        6e:58:12:fc:46:b0:20:93:27:52:da:49:e7:86:41:25:5d:89:
        89:9a:55:46:19:eb:37:06:e9:75:de:89:58:09:20:61:23:2e:
        d4:18:4a:7e:63:e5:19:f0:0c:00:fe:ea:7f:ab:cf:99:04:8a:
        83:11:f0:ed:79:1c:37:96:99:28:8e:2d:33:cb:19:3b:4b:93:
        37:a4:cc:2d:70:4a:0d:ce:38:32:5f:ca:3c:6e:2a:ba:6e:47:
        24:94:37:5e:fc:39:45:59:aa:fa:9d:82:0a:e1:f2:7a:3c:52:
        b2:6a:1c:08:97:ef:8f:26:01:49:ef:1f:c9:e0:b2:5f:28:f5:
        75:9b:5e:a0:f5:28:57:2a:48:a9:1a:0b:e5:a4:29:18:90:cc:
        2b:42:56:58:6d:2c:9b:15:ea:1e:8a:8d:27:04:9f:c3:8c:07:
        9d:2c:34:f4:17:5e:dd:d8:fa:32:54:2c:c3:5a:70:72:05:d9:
        e8:7a:cc:de:47:ad:a5:b8:04:fd:e4:2d:38:37:71:cb:9f:1a:
        c8:d6:d7:d7:1d:b2:9b:0d:33:12:de:0e:d3:9f:21:be:90:1c:
        3d:b9:34:16:71:a8:d6:c2:42:c6:43:b1:48:72:ca:03:6e:06:
        5a:19:90:94:0c:26:01:a3
-----BEGIN CERTIFICATE-----
MIIGaDCCBFCgAwIBAgIBDDANBgkqhkiG9w0BAQ0FADBqMQswCQYDVQQGEwJERTEZ
MBcGA1UECgwQRGFtYXNjaGtlc3RyLiAxMTEWMBQGA1UECwwNQXJiZWl0c3ppbW1l
cjEoMCYGA1UEAwwfRGFtYTExIExhYiBJbnRlcm1lZGlhcnkgVGVzdCBDQTAeFw0y
NTEwMDUwNzA2NTFaFw0zMDExMDYyMzU5NTlaMGQxCzAJBgNVBAYTAkRFMRkwFwYD
VQQKDBBEYW1hc2Noa2VzdHIuIDExMRYwFAYDVQQLDA1BcmJlaXRzemltbWVyMSIw
IAYDVQQDDBlUZXN0MSBMYWIgSW50ZXJtZWRpYXJ5IENBMIICIjANBgkqhkiG9w0B
AQEFAAOCAg8AMIICCgKCAgEAqn5FffTFjzo5Mq92nCYLXjaJxhylJFE607QzEcyQ
7XLEk2jsajuTiOyudNxjBYdPIlzQfbJdQ855yonQP1lchr59VVvT6pQKtb1bBrPK
z06R4UPfBe38425w1czrRa32xVeMcxw4ZwGplVi1AI9P22HG9iDPAyOmxEHtxjMy
lAmhRR4vCcl4+h0pcmba4CmDJcUECH6myOsnKWUz46YApJrlQB8WfiBXLo274HuK
IkTIut7ogCbBS5G28x2jSUvwLb0H92rCwr2zb3CMiiJ3LXccBNNfuaV8inA5zxKF
MjFn6yA6trr50mhXHsz7BTLipZbl7iyQp65esdXCTBVhJD5euTFHPorWdfDAUhAI
8saXB3JN4p8nctq+8aTnP6u+OBfJgiVcoKBqzGUDk8l7zzcNeQUP98JZSd9CAhMm
wUNeG7V1g55UGSH8XDw0qsOIEvJAY38BxUb07gJRot7ygGFXUwenBoIehJStDQ/q
4BE0Sz70cVko/ZJKeqiZWHfsqU8eVkxB2wc5P0hWz9F6seRzwy6OgV87YdEqoiQY
aG/fU3m5LD8dBS60Jgcg38QoMBIHOQr2VNI4Gs/EweYwsoDklsUadIRLry8vgQnu
Mf4i9yCaLJJ3Z2Gln0ISMcWETjGxEuJSBRezoX6RLnYoB2elHZf6M8NFx57/lRvw
5SMCAwEAAaOCAR0wggEZMA4GA1UdDwEB/wQEAwIBBjASBgNVHRMBAf8ECDAGAQH/
AgEBMB0GA1UdDgQWBBTW1f/ADp34qyESdDT/+GonGCXAkTAfBgNVHSMEGDAWgBTo
miXWMUHCx0MQR9pk52lKw/NLJzBeBggrBgEFBQcBAQRSMFAwTgYIKwYBBQUHMAKG
Qmh0dHBzOi8vZWxib3Nzby5naXRodWIuaW8veDUwOS8vRGFtYTExX0ludGVybWVk
aWFyeV9UZXN0X0NBLWNhLmNydDBTBgNVHR8ETDBKMEigRqBEhkJodHRwczovL2Vs
Ym9zc28uZ2l0aHViLmlvL3g1MDkvL0RhbWExMV9JbnRlcm1lZGlhcnlfVGVzdF9D
QS1jYS5jcmwwDQYJKoZIhvcNAQENBQADggIBAERVCPUY9hmJOIq0cNeuMUILlgdD
5y70jNsxu19beDA8M62gZt1KAsjzAI0YM8lIfIAd9uKZ5mRsqe8eSg+Twe96atmz
Pb4HqCGnlZWnBwpWOM5/cdts367+QvhO11A3VLSc9UOyctSZgD81NlNCLRKruZ/e
SqvZRnniuaX7mPaU6nwfeyMuNQvoyeZbaJs3MHf0YqaZ4Jr5OiJ4Ta+wqAtADGDd
4eRr+RZCqAQKOnQa6X+VnSzRxQc99CYDmNBRF7Dnf6Ga2m/NZ1kH5ylOk+8TlVtb
PLjgL6QwJo92TFWHgODAkZuQM4wz8zKwLKsB5hI0Mil0bn7oDKv1ajLMeb6cgPOQ
x3rG4PxdymYQZ25YEvxGsCCTJ1LaSeeGQSVdiYmaVUYZ6zcG6XXeiVgJIGEjLtQY
Sn5j5RnwDAD+6n+rz5kEioMR8O15HDeWmSiOLTPLGTtLkzekzC1wSg3OODJfyjxu
KrpuRySUN178OUVZqvqdggrh8no8UrJqHAiX748mAUnvH8ngsl8o9XWbXqD1KFcq
SKkaC+WkKRiQzCtCVlhtLJsV6h6KjScEn8OMB50sNPQXXt3Y+jJULMNacHIF2eh6
zN5HraW4BP3kLTg3ccufGsjW19cdspsNMxLeDtOfIb6QHD25NBZxqNbCQsZDsUhy
ygNuBloZkJQMJgGj
-----END CERTIFICATE-----
